(cigraph
Graph
p0
(I1000
(lp1
(I0
I1
tp2
a(I0
I2
tp3
a(I0
I3
tp4
a(I2
I4
tp5
a(I2
I5
tp6
a(I0
I6
tp7
a(I0
I7
tp8
a(I0
I8
tp9
a(I7
I9
tp10
a(I6
I10
tp11
a(I5
I11
tp12
a(I0
I12
tp13
a(I11
I13
tp14
a(I0
I14
tp15
a(I0
I15
tp16
a(I2
I16
tp17
a(I0
I17
tp18
a(I8
I18
tp19
a(I0
I19
tp20
a(I5
I20
tp21
a(I6
I21
tp22
a(I8
I22
tp23
a(I2
I23
tp24
a(I2
I24
tp25
a(I20
I25
tp26
a(I15
I26
tp27
a(I15
I27
tp28
a(I5
I28
tp29
a(I28
I29
tp30
a(I8
I30
tp31
a(I15
I31
tp32
a(I7
I32
tp33
a(I0
I33
tp34
a(I0
I34
tp35
a(I23
I35
tp36
a(I29
I36
tp37
a(I33
I37
tp38
a(I0
I38
tp39
a(I28
I39
tp40
a(I28
I40
tp41
a(I39
I41
tp42
a(I0
I42
tp43
a(I39
I43
tp44
a(I29
I44
tp45
a(I7
I45
tp46
a(I31
I46
tp47
a(I39
I47
tp48
a(I21
I48
tp49
a(I7
I49
tp50
a(I37
I50
tp51
a(I5
I51
tp52
a(I27
I52
tp53
a(I41
I53
tp54
a(I33
I54
tp55
a(I21
I55
tp56
a(I48
I56
tp57
a(I39
I57
tp58
a(I6
I58
tp59
a(I0
I59
tp60
a(I28
I60
tp61
a(I0
I61
tp62
a(I39
I62
tp63
a(I7
I63
tp64
a(I54
I64
tp65
a(I13
I65
tp66
a(I6
I66
tp67
a(I39
I67
tp68
a(I5
I68
tp69
a(I68
I69
tp70
a(I31
I70
tp71
a(I7
I71
tp72
a(I27
I72
tp73
a(I2
I73
tp74
a(I7
I74
tp75
a(I48
I75
tp76
a(I10
I76
tp77
a(I20
I77
tp78
a(I7
I78
tp79
a(I10
I79
tp80
a(I19
I80
tp81
a(I56
I81
tp82
a(I33
I82
tp83
a(I76
I83
tp84
a(I83
I84
tp85
a(I0
I85
tp86
a(I7
I86
tp87
a(I23
I87
tp88
a(I71
I88
tp89
a(I23
I89
tp90
a(I0
I90
tp91
a(I37
I91
tp92
a(I45
I92
tp93
a(I21
I93
tp94
a(I52
I94
tp95
a(I32
I95
tp96
a(I39
I96
tp97
a(I60
I97
tp98
a(I36
I98
tp99
a(I75
I99
tp100
a(I5
I100
tp101
a(I7
I101
tp102
a(I21
I102
tp103
a(I20
I103
tp104
a(I29
I104
tp105
a(I5
I105
tp106
a(I51
I106
tp107
a(I60
I107
tp108
a(I10
I108
tp109
a(I53
I109
tp110
a(I86
I110
tp111
a(I66
I111
tp112
a(I5
I112
tp113
a(I0
I113
tp114
a(I98
I114
tp115
a(I61
I115
tp116
a(I27
I116
tp117
a(I0
I117
tp118
a(I78
I118
tp119
a(I7
I119
tp120
a(I90
I120
tp121
a(I26
I121
tp122
a(I0
I122
tp123
a(I66
I123
tp124
a(I23
I124
tp125
a(I54
I125
tp126
a(I71
I126
tp127
a(I109
I127
tp128
a(I84
I128
tp129
a(I109
I129
tp130
a(I23
I130
tp131
a(I28
I131
tp132
a(I59
I132
tp133
a(I27
I133
tp134
a(I107
I134
tp135
a(I129
I135
tp136
a(I133
I136
tp137
a(I126
I137
tp138
a(I0
I138
tp139
a(I69
I139
tp140
a(I20
I140
tp141
a(I84
I141
tp142
a(I91
I142
tp143
a(I54
I143
tp144
a(I27
I144
tp145
a(I12
I145
tp146
a(I7
I146
tp147
a(I86
I147
tp148
a(I23
I148
tp149
a(I78
I149
tp150
a(I113
I150
tp151
a(I148
I151
tp152
a(I45
I152
tp153
a(I116
I153
tp154
a(I9
I154
tp155
a(I152
I155
tp156
a(I66
I156
tp157
a(I0
I157
tp158
a(I5
I158
tp159
a(I23
I159
tp160
a(I81
I160
tp161
a(I135
I161
tp162
a(I3
I162
tp163
a(I10
I163
tp164
a(I116
I164
tp165
a(I69
I165
tp166
a(I92
I166
tp167
a(I60
I167
tp168
a(I69
I168
tp169
a(I129
I169
tp170
a(I5
I170
tp171
a(I148
I171
tp172
a(I54
I172
tp173
a(I37
I173
tp174
a(I13
I174
tp175
a(I60
I175
tp176
a(I23
I176
tp177
a(I23
I177
tp178
a(I23
I178
tp179
a(I141
I179
tp180
a(I39
I180
tp181
a(I46
I181
tp182
a(I14
I182
tp183
a(I69
I183
tp184
a(I119
I184
tp185
a(I21
I185
tp186
a(I84
I186
tp187
a(I54
I187
tp188
a(I58
I188
tp189
a(I23
I189
tp190
a(I7
I190
tp191
a(I100
I191
tp192
a(I89
I192
tp193
a(I31
I193
tp194
a(I149
I194
tp195
a(I46
I195
tp196
a(I114
I196
tp197
a(I7
I197
tp198
a(I190
I198
tp199
a(I33
I199
tp200
a(I102
I200
tp201
a(I151
I201
tp202
a(I27
I202
tp203
a(I76
I203
tp204
a(I64
I204
tp205
a(I69
I205
tp206
a(I31
I206
tp207
a(I7
I207
tp208
a(I160
I208
tp209
a(I129
I209
tp210
a(I71
I210
tp211
a(I37
I211
tp212
a(I92
I212
tp213
a(I27
I213
tp214
a(I90
I214
tp215
a(I38
I215
tp216
a(I72
I216
tp217
a(I109
I217
tp218
a(I11
I218
tp219
a(I69
I219
tp220
a(I87
I220
tp221
a(I71
I221
tp222
a(I149
I222
tp223
a(I26
I223
tp224
a(I191
I224
tp225
a(I58
I225
tp226
a(I109
I226
tp227
a(I75
I227
tp228
a(I78
I228
tp229
a(I28
I229
tp230
a(I124
I230
tp231
a(I121
I231
tp232
a(I97
I232
tp233
a(I198
I233
tp234
a(I0
I234
tp235
a(I179
I235
tp236
a(I141
I236
tp237
a(I134
I237
tp238
a(I10
I238
tp239
a(I167
I239
tp240
a(I14
I240
tp241
a(I147
I241
tp242
a(I138
I242
tp243
a(I7
I243
tp244
a(I199
I244
tp245
a(I51
I245
tp246
a(I116
I246
tp247
a(I169
I247
tp248
a(I45
I248
tp249
a(I44
I249
tp250
a(I27
I250
tp251
a(I121
I251
tp252
a(I74
I252
tp253
a(I149
I253
tp254
a(I8
I254
tp255
a(I50
I255
tp256
a(I4
I256
tp257
a(I42
I257
tp258
a(I94
I258
tp259
a(I11
I259
tp260
a(I72
I260
tp261
a(I20
I261
tp262
a(I219
I262
tp263
a(I160
I263
tp264
a(I248
I264
tp265
a(I109
I265
tp266
a(I221
I266
tp267
a(I164
I267
tp268
a(I171
I268
tp269
a(I70
I269
tp270
a(I109
I270
tp271
a(I52
I271
tp272
a(I29
I272
tp273
a(I20
I273
tp274
a(I149
I274
tp275
a(I131
I275
tp276
a(I68
I276
tp277
a(I220
I277
tp278
a(I60
I278
tp279
a(I128
I279
tp280
a(I36
I280
tp281
a(I230
I281
tp282
a(I126
I282
tp283
a(I216
I283
tp284
a(I28
I284
tp285
a(I231
I285
tp286
a(I55
I286
tp287
a(I66
I287
tp288
a(I2
I288
tp289
a(I58
I289
tp290
a(I114
I290
tp291
a(I84
I291
tp292
a(I178
I292
tp293
a(I27
I293
tp294
a(I190
I294
tp295
a(I121
I295
tp296
a(I289
I296
tp297
a(I130
I297
tp298
a(I75
I298
tp299
a(I157
I299
tp300
a(I41
I300
tp301
a(I33
I301
tp302
a(I142
I302
tp303
a(I81
I303
tp304
a(I31
I304
tp305
a(I28
I305
tp306
a(I178
I306
tp307
a(I150
I307
tp308
a(I2
I308
tp309
a(I239
I309
tp310
a(I185
I310
tp311
a(I109
I311
tp312
a(I79
I312
tp313
a(I54
I313
tp314
a(I28
I314
tp315
a(I86
I315
tp316
a(I147
I316
tp317
a(I292
I317
tp318
a(I190
I318
tp319
a(I113
I319
tp320
a(I303
I320
tp321
a(I231
I321
tp322
a(I121
I322
tp323
a(I27
I323
tp324
a(I27
I324
tp325
a(I102
I325
tp326
a(I292
I326
tp327
a(I155
I327
tp328
a(I8
I328
tp329
a(I29
I329
tp330
a(I39
I330
tp331
a(I5
I331
tp332
a(I83
I332
tp333
a(I188
I333
tp334
a(I217
I334
tp335
a(I82
I335
tp336
a(I87
I336
tp337
a(I61
I337
tp338
a(I27
I338
tp339
a(I102
I339
tp340
a(I33
I340
tp341
a(I0
I341
tp342
a(I289
I342
tp343
a(I41
I343
tp344
a(I180
I344
tp345
a(I173
I345
tp346
a(I181
I346
tp347
a(I78
I347
tp348
a(I281
I348
tp349
a(I267
I349
tp350
a(I52
I350
tp351
a(I71
I351
tp352
a(I52
I352
tp353
a(I7
I353
tp354
a(I76
I354
tp355
a(I187
I355
tp356
a(I74
I356
tp357
a(I12
I357
tp358
a(I288
I358
tp359
a(I357
I359
tp360
a(I311
I360
tp361
a(I44
I361
tp362
a(I230
I362
tp363
a(I33
I363
tp364
a(I221
I364
tp365
a(I27
I365
tp366
a(I165
I366
tp367
a(I318
I367
tp368
a(I0
I368
tp369
a(I359
I369
tp370
a(I285
I370
tp371
a(I169
I371
tp372
a(I143
I372
tp373
a(I40
I373
tp374
a(I7
I374
tp375
a(I191
I375
tp376
a(I62
I376
tp377
a(I41
I377
tp378
a(I208
I378
tp379
a(I21
I379
tp380
a(I209
I380
tp381
a(I0
I381
tp382
a(I263
I382
tp383
a(I45
I383
tp384
a(I144
I384
tp385
a(I213
I385
tp386
a(I176
I386
tp387
a(I36
I387
tp388
a(I99
I388
tp389
a(I7
I389
tp390
a(I320
I390
tp391
a(I20
I391
tp392
a(I31
I392
tp393
a(I29
I393
tp394
a(I267
I394
tp395
a(I4
I395
tp396
a(I363
I396
tp397
a(I48
I397
tp398
a(I48
I398
tp399
a(I125
I399
tp400
a(I58
I400
tp401
a(I50
I401
tp402
a(I54
I402
tp403
a(I0
I403
tp404
a(I0
I404
tp405
a(I3
I405
tp406
a(I226
I406
tp407
a(I378
I407
tp408
a(I8
I408
tp409
a(I141
I409
tp410
a(I170
I410
tp411
a(I40
I411
tp412
a(I178
I412
tp413
a(I0
I413
tp414
a(I7
I414
tp415
a(I36
I415
tp416
a(I140
I416
tp417
a(I302
I417
tp418
a(I152
I418
tp419
a(I33
I419
tp420
a(I20
I420
tp421
a(I151
I421
tp422
a(I36
I422
tp423
a(I0
I423
tp424
a(I39
I424
tp425
a(I28
I425
tp426
a(I383
I426
tp427
a(I4
I427
tp428
a(I385
I428
tp429
a(I53
I429
tp430
a(I53
I430
tp431
a(I149
I431
tp432
a(I283
I432
tp433
a(I414
I433
tp434
a(I173
I434
tp435
a(I70
I435
tp436
a(I208
I436
tp437
a(I306
I437
tp438
a(I74
I438
tp439
a(I269
I439
tp440
a(I10
I440
tp441
a(I37
I441
tp442
a(I220
I442
tp443
a(I31
I443
tp444
a(I211
I444
tp445
a(I277
I445
tp446
a(I31
I446
tp447
a(I239
I447
tp448
a(I147
I448
tp449
a(I12
I449
tp450
a(I394
I450
tp451
a(I18
I451
tp452
a(I256
I452
tp453
a(I28
I453
tp454
a(I448
I454
tp455
a(I24
I455
tp456
a(I121
I456
tp457
a(I425
I457
tp458
a(I277
I458
tp459
a(I371
I459
tp460
a(I0
I460
tp461
a(I203
I461
tp462
a(I42
I462
tp463
a(I15
I463
tp464
a(I31
I464
tp465
a(I94
I465
tp466
a(I177
I466
tp467
a(I139
I467
tp468
a(I221
I468
tp469
a(I79
I469
tp470
a(I27
I470
tp471
a(I69
I471
tp472
a(I52
I472
tp473
a(I0
I473
tp474
a(I152
I474
tp475
a(I6
I475
tp476
a(I54
I476
tp477
a(I54
I477
tp478
a(I306
I478
tp479
a(I96
I479
tp480
a(I439
I480
tp481
a(I65
I481
tp482
a(I105
I482
tp483
a(I41
I483
tp484
a(I27
I484
tp485
a(I20
I485
tp486
a(I280
I486
tp487
a(I97
I487
tp488
a(I0
I488
tp489
a(I26
I489
tp490
a(I424
I490
tp491
a(I41
I491
tp492
a(I178
I492
tp493
a(I62
I493
tp494
a(I137
I494
tp495
a(I308
I495
tp496
a(I431
I496
tp497
a(I0
I497
tp498
a(I287
I498
tp499
a(I50
I499
tp500
a(I178
I500
tp501
a(I138
I501
tp502
a(I78
I502
tp503
a(I80
I503
tp504
a(I39
I504
tp505
a(I107
I505
tp506
a(I257
I506
tp507
a(I343
I507
tp508
a(I8
I508
tp509
a(I31
I509
tp510
a(I39
I510
tp511
a(I7
I511
tp512
a(I0
I512
tp513
a(I221
I513
tp514
a(I213
I514
tp515
a(I129
I515
tp516
a(I28
I516
tp517
a(I46
I517
tp518
a(I155
I518
tp519
a(I27
I519
tp520
a(I344
I520
tp521
a(I258
I521
tp522
a(I221
I522
tp523
a(I320
I523
tp524
a(I437
I524
tp525
a(I21
I525
tp526
a(I256
I526
tp527
a(I289
I527
tp528
a(I79
I528
tp529
a(I239
I529
tp530
a(I88
I530
tp531
a(I143
I531
tp532
a(I94
I532
tp533
a(I78
I533
tp534
a(I29
I534
tp535
a(I146
I535
tp536
a(I2
I536
tp537
a(I181
I537
tp538
a(I350
I538
tp539
a(I423
I539
tp540
a(I29
I540
tp541
a(I23
I541
tp542
a(I180
I542
tp543
a(I267
I543
tp544
a(I191
I544
tp545
a(I68
I545
tp546
a(I125
I546
tp547
a(I107
I547
tp548
a(I280
I548
tp549
a(I370
I549
tp550
a(I71
I550
tp551
a(I318
I551
tp552
a(I28
I552
tp553
a(I0
I553
tp554
a(I465
I554
tp555
a(I77
I555
tp556
a(I108
I556
tp557
a(I211
I557
tp558
a(I175
I558
tp559
a(I28
I559
tp560
a(I77
I560
tp561
a(I178
I561
tp562
a(I109
I562
tp563
a(I314
I563
tp564
a(I267
I564
tp565
a(I0
I565
tp566
a(I231
I566
tp567
a(I506
I567
tp568
a(I213
I568
tp569
a(I254
I569
tp570
a(I29
I570
tp571
a(I60
I571
tp572
a(I126
I572
tp573
a(I39
I573
tp574
a(I0
I574
tp575
a(I173
I575
tp576
a(I5
I576
tp577
a(I121
I577
tp578
a(I15
I578
tp579
a(I306
I579
tp580
a(I113
I580
tp581
a(I329
I581
tp582
a(I0
I582
tp583
a(I194
I583
tp584
a(I192
I584
tp585
a(I198
I585
tp586
a(I94
I586
tp587
a(I183
I587
tp588
a(I98
I588
tp589
a(I75
I589
tp590
a(I41
I590
tp591
a(I255
I591
tp592
a(I148
I592
tp593
a(I472
I593
tp594
a(I190
I594
tp595
a(I425
I595
tp596
a(I394
I596
tp597
a(I66
I597
tp598
a(I256
I598
tp599
a(I213
I599
tp600
a(I116
I600
tp601
a(I152
I601
tp602
a(I39
I602
tp603
a(I74
I603
tp604
a(I380
I604
tp605
a(I395
I605
tp606
a(I347
I606
tp607
a(I116
I607
tp608
a(I175
I608
tp609
a(I31
I609
tp610
a(I522
I610
tp611
a(I13
I611
tp612
a(I278
I612
tp613
a(I51
I613
tp614
a(I78
I614
tp615
a(I181
I615
tp616
a(I87
I616
tp617
a(I74
I617
tp618
a(I239
I618
tp619
a(I167
I619
tp620
a(I466
I620
tp621
a(I167
I621
tp622
a(I606
I622
tp623
a(I52
I623
tp624
a(I289
I624
tp625
a(I54
I625
tp626
a(I110
I626
tp627
a(I0
I627
tp628
a(I27
I628
tp629
a(I246
I629
tp630
a(I90
I630
tp631
a(I21
I631
tp632
a(I544
I632
tp633
a(I12
I633
tp634
a(I280
I634
tp635
a(I271
I635
tp636
a(I263
I636
tp637
a(I135
I637
tp638
a(I90
I638
tp639
a(I473
I639
tp640
a(I173
I640
tp641
a(I427
I641
tp642
a(I45
I642
tp643
a(I173
I643
tp644
a(I0
I644
tp645
a(I221
I645
tp646
a(I8
I646
tp647
a(I271
I647
tp648
a(I129
I648
tp649
a(I149
I649
tp650
a(I568
I650
tp651
a(I443
I651
tp652
a(I535
I652
tp653
a(I39
I653
tp654
a(I223
I654
tp655
a(I205
I655
tp656
a(I499
I656
tp657
a(I252
I657
tp658
a(I216
I658
tp659
a(I53
I659
tp660
a(I19
I660
tp661
a(I460
I661
tp662
a(I419
I662
tp663
a(I211
I663
tp664
a(I42
I664
tp665
a(I239
I665
tp666
a(I4
I666
tp667
a(I55
I667
tp668
a(I221
I668
tp669
a(I275
I669
tp670
a(I145
I670
tp671
a(I499
I671
tp672
a(I190
I672
tp673
a(I172
I673
tp674
a(I39
I674
tp675
a(I623
I675
tp676
a(I350
I676
tp677
a(I6
I677
tp678
a(I626
I678
tp679
a(I78
I679
tp680
a(I605
I680
tp681
a(I626
I681
tp682
a(I145
I682
tp683
a(I29
I683
tp684
a(I289
I684
tp685
a(I39
I685
tp686
a(I328
I686
tp687
a(I347
I687
tp688
a(I280
I688
tp689
a(I560
I689
tp690
a(I9
I690
tp691
a(I87
I691
tp692
a(I588
I692
tp693
a(I337
I693
tp694
a(I421
I694
tp695
a(I621
I695
tp696
a(I371
I696
tp697
a(I94
I697
tp698
a(I21
I698
tp699
a(I178
I699
tp700
a(I28
I700
tp701
a(I0
I701
tp702
a(I0
I702
tp703
a(I0
I703
tp704
a(I68
I704
tp705
a(I458
I705
tp706
a(I399
I706
tp707
a(I54
I707
tp708
a(I319
I708
tp709
a(I188
I709
tp710
a(I202
I710
tp711
a(I59
I711
tp712
a(I542
I712
tp713
a(I135
I713
tp714
a(I107
I714
tp715
a(I231
I715
tp716
a(I23
I716
tp717
a(I214
I717
tp718
a(I348
I718
tp719
a(I350
I719
tp720
a(I42
I720
tp721
a(I10
I721
tp722
a(I111
I722
tp723
a(I470
I723
tp724
a(I42
I724
tp725
a(I507
I725
tp726
a(I466
I726
tp727
a(I403
I727
tp728
a(I216
I728
tp729
a(I48
I729
tp730
a(I29
I730
tp731
a(I106
I731
tp732
a(I304
I732
tp733
a(I147
I733
tp734
a(I54
I734
tp735
a(I0
I735
tp736
a(I660
I736
tp737
a(I347
I737
tp738
a(I641
I738
tp739
a(I52
I739
tp740
a(I218
I740
tp741
a(I621
I741
tp742
a(I218
I742
tp743
a(I282
I743
tp744
a(I7
I744
tp745
a(I20
I745
tp746
a(I52
I746
tp747
a(I113
I747
tp748
a(I408
I748
tp749
a(I167
I749
tp750
a(I318
I750
tp751
a(I144
I751
tp752
a(I624
I752
tp753
a(I531
I753
tp754
a(I39
I754
tp755
a(I149
I755
tp756
a(I94
I756
tp757
a(I12
I757
tp758
a(I672
I758
tp759
a(I214
I759
tp760
a(I402
I760
tp761
a(I363
I761
tp762
a(I0
I762
tp763
a(I160
I763
tp764
a(I39
I764
tp765
a(I654
I765
tp766
a(I254
I766
tp767
a(I2
I767
tp768
a(I288
I768
tp769
a(I536
I769
tp770
a(I257
I770
tp771
a(I109
I771
tp772
a(I394
I772
tp773
a(I39
I773
tp774
a(I85
I774
tp775
a(I501
I775
tp776
a(I103
I776
tp777
a(I42
I777
tp778
a(I532
I778
tp779
a(I718
I779
tp780
a(I680
I780
tp781
a(I377
I781
tp782
a(I59
I782
tp783
a(I612
I783
tp784
a(I144
I784
tp785
a(I254
I785
tp786
a(I39
I786
tp787
a(I403
I787
tp788
a(I131
I788
tp789
a(I33
I789
tp790
a(I749
I790
tp791
a(I119
I791
tp792
a(I167
I792
tp793
a(I517
I793
tp794
a(I71
I794
tp795
a(I68
I795
tp796
a(I359
I796
tp797
a(I109
I797
tp798
a(I133
I798
tp799
a(I303
I799
tp800
a(I395
I800
tp801
a(I280
I801
tp802
a(I106
I802
tp803
a(I735
I803
tp804
a(I275
I804
tp805
a(I5
I805
tp806
a(I21
I806
tp807
a(I167
I807
tp808
a(I23
I808
tp809
a(I103
I809
tp810
a(I663
I810
tp811
a(I678
I811
tp812
a(I54
I812
tp813
a(I208
I813
tp814
a(I226
I814
tp815
a(I39
I815
tp816
a(I649
I816
tp817
a(I0
I817
tp818
a(I29
I818
tp819
a(I348
I819
tp820
a(I223
I820
tp821
a(I485
I821
tp822
a(I10
I822
tp823
a(I309
I823
tp824
a(I822
I824
tp825
a(I621
I825
tp826
a(I214
I826
tp827
a(I54
I827
tp828
a(I820
I828
tp829
a(I23
I829
tp830
a(I203
I830
tp831
a(I138
I831
tp832
a(I7
I832
tp833
a(I83
I833
tp834
a(I350
I834
tp835
a(I218
I835
tp836
a(I42
I836
tp837
a(I660
I837
tp838
a(I56
I838
tp839
a(I720
I839
tp840
a(I226
I840
tp841
a(I28
I841
tp842
a(I197
I842
tp843
a(I254
I843
tp844
a(I254
I844
tp845
a(I179
I845
tp846
a(I309
I846
tp847
a(I605
I847
tp848
a(I2
I848
tp849
a(I357
I849
tp850
a(I653
I850
tp851
a(I610
I851
tp852
a(I309
I852
tp853
a(I318
I853
tp854
a(I165
I854
tp855
a(I54
I855
tp856
a(I121
I856
tp857
a(I0
I857
tp858
a(I172
I858
tp859
a(I54
I859
tp860
a(I165
I860
tp861
a(I107
I861
tp862
a(I178
I862
tp863
a(I688
I863
tp864
a(I68
I864
tp865
a(I214
I865
tp866
a(I103
I866
tp867
a(I435
I867
tp868
a(I370
I868
tp869
a(I230
I869
tp870
a(I149
I870
tp871
a(I437
I871
tp872
a(I302
I872
tp873
a(I440
I873
tp874
a(I0
I874
tp875
a(I844
I875
tp876
a(I33
I876
tp877
a(I129
I877
tp878
a(I19
I878
tp879
a(I744
I879
tp880
a(I28
I880
tp881
a(I41
I881
tp882
a(I690
I882
tp883
a(I49
I883
tp884
a(I312
I884
tp885
a(I637
I885
tp886
a(I767
I886
tp887
a(I361
I887
tp888
a(I808
I888
tp889
a(I62
I889
tp890
a(I27
I890
tp891
a(I770
I891
tp892
a(I348
I892
tp893
a(I536
I893
tp894
a(I254
I894
tp895
a(I23
I895
tp896
a(I0
I896
tp897
a(I129
I897
tp898
a(I119
I898
tp899
a(I732
I899
tp900
a(I68
I900
tp901
a(I763
I901
tp902
a(I688
I902
tp903
a(I0
I903
tp904
a(I864
I904
tp905
a(I27
I905
tp906
a(I617
I906
tp907
a(I453
I907
tp908
a(I21
I908
tp909
a(I726
I909
tp910
a(I121
I910
tp911
a(I97
I911
tp912
a(I718
I912
tp913
a(I41
I913
tp914
a(I53
I914
tp915
a(I322
I915
tp916
a(I169
I916
tp917
a(I425
I917
tp918
a(I109
I918
tp919
a(I0
I919
tp920
a(I686
I920
tp921
a(I160
I921
tp922
a(I172
I922
tp923
a(I427
I923
tp924
a(I394
I924
tp925
a(I322
I925
tp926
a(I137
I926
tp927
a(I304
I927
tp928
a(I518
I928
tp929
a(I178
I929
tp930
a(I534
I930
tp931
a(I6
I931
tp932
a(I28
I932
tp933
a(I24
I933
tp934
a(I507
I934
tp935
a(I178
I935
tp936
a(I302
I936
tp937
a(I441
I937
tp938
a(I721
I938
tp939
a(I902
I939
tp940
a(I366
I940
tp941
a(I2
I941
tp942
a(I846
I942
tp943
a(I21
I943
tp944
a(I258
I944
tp945
a(I842
I945
tp946
a(I397
I946
tp947
a(I188
I947
tp948
a(I221
I948
tp949
a(I27
I949
tp950
a(I503
I950
tp951
a(I535
I951
tp952
a(I33
I952
tp953
a(I39
I953
tp954
a(I383
I954
tp955
a(I231
I955
tp956
a(I806
I956
tp957
a(I0
I957
tp958
a(I198
I958
tp959
a(I367
I959
tp960
a(I402
I960
tp961
a(I12
I961
tp962
a(I617
I962
tp963
a(I22
I963
tp964
a(I5
I964
tp965
a(I146
I965
tp966
a(I124
I966
tp967
a(I60
I967
tp968
a(I10
I968
tp969
a(I223
I969
tp970
a(I126
I970
tp971
a(I626
I971
tp972
a(I42
I972
tp973
a(I6
I973
tp974
a(I106
I974
tp975
a(I418
I975
tp976
a(I403
I976
tp977
a(I138
I977
tp978
a(I126
I978
tp979
a(I842
I979
tp980
a(I20
I980
tp981
a(I205
I981
tp982
a(I137
I982
tp983
a(I54
I983
tp984
a(I145
I984
tp985
a(I964
I985
tp986
a(I647
I986
tp987
a(I719
I987
tp988
a(I2
I988
tp989
a(I311
I989
tp990
a(I216
I990
tp991
a(I584
I991
tp992
a(I197
I992
tp993
a(I989
I993
tp994
a(I250
I994
tp995
a(I3
I995
tp996
a(I92
I996
tp997
a(I918
I997
tp998
a(I388
I998
tp999
a(I167
I999
tp1000
aI00
(dp1001
(dp1002
(dp1003
tp1004
Rp1005
(dp1006
b(lp1007
I1
aI2
aI4
aI8
aI16
aI32
a(lp1008
(lp1009
I7970
aI5980
aI1996
aI0
aI5982
aI0
aI1996
aI7970
aI0
aI0
aI0
aI0
aI0
aI1996
aI19838
aI1996
aI0
aI0
aI0
aI0
aI0
aI15900
aI0
aI7968
aI0
aI5976
aI1996
aI0
aI0
aI0
aa(lp1010
I159350
aI0
aI1994
aI0
aI1994
aI56858
aI0
aI0
aI0
aI0
aI1994
aI0
aI1994
aI0
aI0
aI0
aI0
aI0
aI0
aI0
aI1994
aI0
aI3984
aI0
aI25712
aI5974
aI431882
aI0
aI0
aI0
aa(lp1011
I75758
aI164346
aI3978
aI142056
aI41302
aI31546
aI3978
aI25686
aI9918
aI9930
aI1990
aI3978
aI52844
aI17818
aI81410
aI15852
aI85134
aI0
aI21744
aI0
aI1990
aI3978
aI0
aI1990
aI62554
aI435114
aI0
aI0
aI0
aI0
aa(lp1012
I7914
aI7916
aI41178
aI13826
aI39156
aI23640
aI13830
aI5940
aI1982
aI3962
aI7914
aI52630
aI11856
aI3962
aI5940
aI3960
aI101890
aI29510
aI88856
aI1982
aI48842
aI434850
aI19728
aI5938
aI199076
aI9890
aI1982
aI130490
aI9884
aI19722
aa(lp1013
I141458
aI13716
aI128856
aI529334
aI775896
aI76922
aI23442
aI183064
aI9810
aI31202
aI75118
aI432826
aI27310
aI9810
aI36976
aI99192
aI545558
aI56122
aI31206
aI13720
aI38912
aI97536
aI209246
aI17612
aI33128
aI103154
aI67470
aI11764
aI19568
aI243870
aa(lp1014
I463892
aI145456
aI62564
aI162038
aI32600
aI278734
aI215292
aI167496
aI103308
aI808088
aI112162
aI101406
aI97792
aI161904
aI26880
aI55218
aI51442
aI160230
aI103030
aI42082
aI312150
aI395656
aI151738
aI66452
aI43954
aI415106
aI47736
aI295962
aI173802
aI408114
aa(lp1015
(lp1016
I7970
aI5980
aI1996
aI0
aI5982
aI0
aI1996
aI7970
aI0
aI0
aI0
aI0
aI0
aI1996
aI19838
aI1996
aI0
aI0
aI0
aI0
aI0
aI15900
aI0
aI7968
aI0
aI5976
aI1996
aI0
aI0
aI0
aa(lp1017
I159350
aI0
aI1994
aI0
aI1994
aI56858
aI0
aI0
aI0
aI0
aI1994
aI0
aI1994
aI0
aI0
aI0
aI0
aI0
aI0
aI0
aI1994
aI0
aI3984
aI0
aI25712
aI5974
aI431882
aI0
aI0
aI0
aa(lp1018
I75758
aI164346
aI3978
aI142056
aI41302
aI31546
aI3978
aI25686
aI9918
aI9930
aI1990
aI3978
aI52844
aI17818
aI81410
aI15852
aI85134
aI0
aI21744
aI0
aI1990
aI3978
aI0
aI1990
aI62554
aI435114
aI0
aI0
aI0
aI0
aa(lp1019
I7914
aI7916
aI41178
aI13826
aI39156
aI23640
aI13830
aI5940
aI1982
aI3962
aI7914
aI52630
aI11856
aI3962
aI5940
aI3960
aI101890
aI29510
aI88856
aI1982
aI362758
aI583136
aI19728
aI5938
aI199076
aI9890
aI1982
aI700653
aI9884
aI19722
aa(lp1020
I141458
aI13716
aI377976
aI529334
aI863341
aI76922
aI23442
aI183064
aI9810
aI31202
aI421943
aI432826
aI27310
aI9810
aI140141
aI99192
aI563385
aI56122
aI31206
aI219928
aI38912
aI97536
aI209246
aI445276
aI457461
aI103154
aI67470
aI11764
aI19568
aI243870
aa(lp1021
I617233
aI407513
aI344951
aI543639
aI32600
aI715133
aI703550
aI552312
aI473535
aI877968
aI520558
aI101406
aI286610
aI161904
aI231625
aI55218
aI326196
aI160230
aI451123
aI42082
aI671733
aI725923
aI151738
aI374191
aI231824
aI713092
aI293556
aI479992
aI562978
aI662054
aa(lp1022
F1.8975069522857666
aF3.490312099456787
aF4.429161071777344
aF6.387738943099976
aF11.394353866577148
aF22.442769050598145
a(lp1023
I792316
aI846832
aI877618
aI951626
aI951988
aI929698
a(lp1024
I792316
aI846832
aI928361
aI961547
aI955048
aI930542
a(lp1025
F3.5472919940948486
aF3.8509740829467773
aF5.524147987365723
aF8.590357065200806
aF12.055346965789795
aF19.55640411376953
atp1026
.