(cigraph
Graph
p0
(I979
(lp1
(I1
I14
tp2
a(I1
I40
tp3
a(I16
I44
tp4
a(I9
I45
tp5
a(I24
I46
tp6
a(I31
I47
tp7
a(I14
I51
tp8
a(I27
I52
tp9
a(I6
I54
tp10
a(I28
I61
tp11
a(I60
I61
tp12
a(I19
I76
tp13
a(I73
I76
tp14
a(I51
I77
tp15
a(I56
I78
tp16
a(I34
I79
tp17
a(I43
I80
tp18
a(I63
I81
tp19
a(I26
I82
tp20
a(I55
I82
tp21
a(I15
I85
tp22
a(I36
I86
tp23
a(I5
I87
tp24
a(I82
I88
tp25
a(I25
I96
tp26
a(I53
I99
tp27
a(I43
I101
tp28
a(I33
I106
tp29
a(I55
I114
tp30
a(I68
I115
tp31
a(I117
I118
tp32
a(I86
I120
tp33
a(I61
I121
tp34
a(I65
I122
tp35
a(I3
I125
tp36
a(I14
I125
tp37
a(I76
I126
tp38
a(I21
I127
tp39
a(I10
I134
tp40
a(I92
I134
tp41
a(I120
I134
tp42
a(I42
I135
tp43
a(I16
I138
tp44
a(I29
I142
tp45
a(I114
I143
tp46
a(I17
I144
tp47
a(I32
I144
tp48
a(I41
I144
tp49
a(I128
I145
tp50
a(I29
I146
tp51
a(I137
I149
tp52
a(I125
I152
tp53
a(I49
I153
tp54
a(I94
I153
tp55
a(I103
I157
tp56
a(I99
I174
tp57
a(I8
I177
tp58
a(I108
I179
tp59
a(I150
I179
tp60
a(I169
I179
tp61
a(I63
I182
tp62
a(I65
I186
tp63
a(I184
I187
tp64
a(I116
I188
tp65
a(I30
I189
tp66
a(I81
I192
tp67
a(I68
I199
tp68
a(I181
I199
tp69
a(I20
I200
tp70
a(I101
I200
tp71
a(I134
I200
tp72
a(I116
I201
tp73
a(I123
I204
tp74
a(I142
I205
tp75
a(I37
I206
tp76
a(I57
I206
tp77
a(I56
I207
tp78
a(I143
I211
tp79
a(I20
I213
tp80
a(I77
I215
tp81
a(I94
I216
tp82
a(I188
I217
tp83
a(I50
I218
tp84
a(I79
I218
tp85
a(I52
I219
tp86
a(I181
I220
tp87
a(I214
I221
tp88
a(I70
I222
tp89
a(I21
I223
tp90
a(I108
I223
tp91
a(I187
I223
tp92
a(I206
I223
tp93
a(I31
I224
tp94
a(I209
I226
tp95
a(I220
I226
tp96
a(I41
I229
tp97
a(I142
I229
tp98
a(I189
I229
tp99
a(I87
I231
tp100
a(I81
I232
tp101
a(I175
I233
tp102
a(I186
I236
tp103
a(I198
I237
tp104
a(I125
I239
tp105
a(I41
I242
tp106
a(I199
I242
tp107
a(I16
I243
tp108
a(I73
I245
tp109
a(I7
I247
tp110
a(I159
I247
tp111
a(I62
I249
tp112
a(I82
I249
tp113
a(I196
I249
tp114
a(I138
I250
tp115
a(I6
I251
tp116
a(I40
I251
tp117
a(I83
I252
tp118
a(I230
I252
tp119
a(I20
I253
tp120
a(I78
I253
tp121
a(I169
I254
tp122
a(I197
I256
tp123
a(I4
I257
tp124
a(I118
I258
tp125
a(I245
I258
tp126
a(I257
I258
tp127
a(I18
I259
tp128
a(I56
I260
tp129
a(I116
I260
tp130
a(I147
I260
tp131
a(I101
I261
tp132
a(I216
I261
tp133
a(I71
I262
tp134
a(I108
I262
tp135
a(I140
I263
tp136
a(I210
I263
tp137
a(I230
I263
tp138
a(I35
I264
tp139
a(I129
I264
tp140
a(I161
I265
tp141
a(I88
I268
tp142
a(I136
I268
tp143
a(I137
I268
tp144
a(I221
I268
tp145
a(I6
I269
tp146
a(I17
I269
tp147
a(I100
I270
tp148
a(I47
I271
tp149
a(I66
I272
tp150
a(I87
I272
tp151
a(I37
I273
tp152
a(I67
I273
tp153
a(I215
I273
tp154
a(I261
I274
tp155
a(I255
I277
tp156
a(I101
I280
tp157
a(I122
I284
tp158
a(I2
I285
tp159
a(I133
I285
tp160
a(I211
I286
tp161
a(I40
I287
tp162
a(I69
I287
tp163
a(I63
I288
tp164
a(I112
I288
tp165
a(I60
I289
tp166
a(I133
I291
tp167
a(I43
I292
tp168
a(I148
I292
tp169
a(I281
I292
tp170
a(I25
I293
tp171
a(I190
I296
tp172
a(I266
I296
tp173
a(I217
I297
tp174
a(I35
I299
tp175
a(I224
I299
tp176
a(I286
I299
tp177
a(I56
I300
tp178
a(I61
I300
tp179
a(I93
I300
tp180
a(I137
I300
tp181
a(I60
I301
tp182
a(I155
I301
tp183
a(I41
I302
tp184
a(I280
I302
tp185
a(I45
I304
tp186
a(I171
I304
tp187
a(I180
I304
tp188
a(I216
I304
tp189
a(I251
I304
tp190
a(I13
I307
tp191
a(I38
I309
tp192
a(I140
I310
tp193
a(I180
I310
tp194
a(I199
I310
tp195
a(I68
I311
tp196
a(I213
I311
tp197
a(I2
I312
tp198
a(I253
I312
tp199
a(I265
I312
tp200
a(I33
I313
tp201
a(I53
I313
tp202
a(I99
I314
tp203
a(I139
I314
tp204
a(I163
I315
tp205
a(I296
I315
tp206
a(I16
I316
tp207
a(I78
I316
tp208
a(I43
I317
tp209
a(I109
I317
tp210
a(I155
I317
tp211
a(I285
I317
tp212
a(I52
I318
tp213
a(I40
I320
tp214
a(I265
I320
tp215
a(I48
I324
tp216
a(I322
I324
tp217
a(I224
I325
tp218
a(I79
I326
tp219
a(I113
I326
tp220
a(I39
I327
tp221
a(I182
I327
tp222
a(I201
I327
tp223
a(I142
I328
tp224
a(I217
I328
tp225
a(I160
I331
tp226
a(I309
I332
tp227
a(I27
I333
tp228
a(I239
I333
tp229
a(I11
I334
tp230
a(I79
I335
tp231
a(I199
I335
tp232
a(I264
I336
tp233
a(I272
I336
tp234
a(I34
I337
tp235
a(I150
I337
tp236
a(I282
I337
tp237
a(I202
I339
tp238
a(I308
I340
tp239
a(I330
I341
tp240
a(I157
I342
tp241
a(I227
I342
tp242
a(I325
I342
tp243
a(I23
I343
tp244
a(I78
I343
tp245
a(I106
I343
tp246
a(I170
I343
tp247
a(I211
I343
tp248
a(I190
I344
tp249
a(I87
I345
tp250
a(I111
I345
tp251
a(I304
I345
tp252
a(I88
I346
tp253
a(I207
I347
tp254
a(I246
I347
tp255
a(I281
I348
tp256
a(I319
I349
tp257
a(I126
I352
tp258
a(I32
I353
tp259
a(I194
I353
tp260
a(I99
I354
tp261
a(I275
I354
tp262
a(I75
I355
tp263
a(I120
I355
tp264
a(I24
I357
tp265
a(I298
I357
tp266
a(I195
I358
tp267
a(I90
I359
tp268
a(I321
I359
tp269
a(I96
I360
tp270
a(I141
I360
tp271
a(I175
I360
tp272
a(I279
I360
tp273
a(I108
I361
tp274
a(I343
I361
tp275
a(I155
I362
tp276
a(I169
I363
tp277
a(I212
I363
tp278
a(I34
I366
tp279
a(I219
I366
tp280
a(I70
I367
tp281
a(I90
I367
tp282
a(I14
I368
tp283
a(I148
I368
tp284
a(I159
I370
tp285
a(I277
I371
tp286
a(I350
I371
tp287
a(I161
I373
tp288
a(I162
I373
tp289
a(I169
I373
tp290
a(I53
I374
tp291
a(I140
I375
tp292
a(I226
I375
tp293
a(I233
I375
tp294
a(I299
I375
tp295
a(I62
I376
tp296
a(I117
I376
tp297
a(I125
I376
tp298
a(I14
I377
tp299
a(I55
I377
tp300
a(I119
I377
tp301
a(I48
I378
tp302
a(I90
I378
tp303
a(I236
I378
tp304
a(I23
I379
tp305
a(I202
I379
tp306
a(I211
I379
tp307
a(I336
I380
tp308
a(I6
I381
tp309
a(I102
I381
tp310
a(I154
I382
tp311
a(I189
I382
tp312
a(I318
I382
tp313
a(I3
I383
tp314
a(I110
I383
tp315
a(I196
I383
tp316
a(I213
I383
tp317
a(I216
I383
tp318
a(I309
I384
tp319
a(I66
I385
tp320
a(I24
I386
tp321
a(I238
I386
tp322
a(I318
I387
tp323
a(I50
I388
tp324
a(I117
I388
tp325
a(I355
I388
tp326
a(I131
I389
tp327
a(I316
I389
tp328
a(I41
I390
tp329
a(I346
I391
tp330
a(I116
I392
tp331
a(I131
I392
tp332
a(I275
I392
tp333
a(I57
I393
tp334
a(I86
I393
tp335
a(I362
I393
tp336
a(I102
I394
tp337
a(I331
I395
tp338
a(I141
I396
tp339
a(I89
I397
tp340
a(I122
I397
tp341
a(I221
I397
tp342
a(I227
I399
tp343
a(I1
I401
tp344
a(I171
I401
tp345
a(I27
I404
tp346
a(I176
I404
tp347
a(I289
I404
tp348
a(I130
I405
tp349
a(I48
I406
tp350
a(I95
I407
tp351
a(I102
I408
tp352
a(I406
I408
tp353
a(I19
I409
tp354
a(I159
I409
tp355
a(I257
I409
tp356
a(I230
I410
tp357
a(I245
I410
tp358
a(I267
I411
tp359
a(I119
I412
tp360
a(I310
I412
tp361
a(I132
I414
tp362
a(I158
I414
tp363
a(I413
I414
tp364
a(I235
I415
tp365
a(I304
I415
tp366
a(I321
I415
tp367
a(I379
I415
tp368
a(I96
I416
tp369
a(I195
I416
tp370
a(I330
I417
tp371
a(I383
I417
tp372
a(I308
I418
tp373
a(I24
I419
tp374
a(I37
I419
tp375
a(I113
I420
tp376
a(I227
I420
tp377
a(I371
I420
tp378
a(I183
I422
tp379
a(I269
I422
tp380
a(I380
I422
tp381
a(I210
I423
tp382
a(I107
I424
tp383
a(I43
I425
tp384
a(I281
I425
tp385
a(I322
I425
tp386
a(I104
I426
tp387
a(I213
I426
tp388
a(I293
I426
tp389
a(I358
I426
tp390
a(I260
I427
tp391
a(I108
I428
tp392
a(I413
I429
tp393
a(I225
I430
tp394
a(I200
I431
tp395
a(I108
I432
tp396
a(I228
I433
tp397
a(I346
I433
tp398
a(I12
I434
tp399
a(I151
I434
tp400
a(I159
I434
tp401
a(I241
I434
tp402
a(I265
I434
tp403
a(I327
I434
tp404
a(I388
I434
tp405
a(I106
I435
tp406
a(I176
I435
tp407
a(I357
I435
tp408
a(I360
I435
tp409
a(I96
I436
tp410
a(I185
I436
tp411
a(I394
I436
tp412
a(I184
I437
tp413
a(I186
I437
tp414
a(I395
I437
tp415
a(I24
I438
tp416
a(I403
I439
tp417
a(I421
I441
tp418
a(I118
I443
tp419
a(I137
I444
tp420
a(I233
I445
tp421
a(I315
I445
tp422
a(I79
I448
tp423
a(I218
I450
tp424
a(I0
I452
tp425
a(I240
I452
tp426
a(I325
I452
tp427
a(I205
I453
tp428
a(I441
I453
tp429
a(I161
I454
tp430
a(I182
I454
tp431
a(I146
I456
tp432
a(I155
I456
tp433
a(I200
I456
tp434
a(I212
I456
tp435
a(I457
I458
tp436
a(I376
I459
tp437
a(I411
I460
tp438
a(I119
I461
tp439
a(I305
I462
tp440
a(I381
I462
tp441
a(I6
I463
tp442
a(I7
I463
tp443
a(I161
I463
tp444
a(I305
I463
tp445
a(I347
I463
tp446
a(I130
I465
tp447
a(I246
I465
tp448
a(I86
I466
tp449
a(I153
I466
tp450
a(I285
I466
tp451
a(I104
I467
tp452
a(I88
I468
tp453
a(I251
I468
tp454
a(I344
I468
tp455
a(I40
I469
tp456
a(I417
I469
tp457
a(I273
I471
tp458
a(I141
I472
tp459
a(I70
I473
tp460
a(I55
I474
tp461
a(I403
I474
tp462
a(I149
I475
tp463
a(I200
I476
tp464
a(I222
I476
tp465
a(I131
I477
tp466
a(I10
I478
tp467
a(I99
I478
tp468
a(I120
I478
tp469
a(I193
I479
tp470
a(I200
I479
tp471
a(I255
I480
tp472
a(I78
I481
tp473
a(I263
I482
tp474
a(I290
I482
tp475
a(I291
I483
tp476
a(I312
I483
tp477
a(I361
I483
tp478
a(I233
I484
tp479
a(I268
I484
tp480
a(I440
I484
tp481
a(I59
I485
tp482
a(I109
I485
tp483
a(I120
I485
tp484
a(I210
I486
tp485
a(I3
I487
tp486
a(I28
I488
tp487
a(I65
I488
tp488
a(I159
I488
tp489
a(I379
I488
tp490
a(I86
I489
tp491
a(I145
I490
tp492
a(I264
I490
tp493
a(I331
I490
tp494
a(I394
I490
tp495
a(I427
I490
tp496
a(I352
I492
tp497
a(I450
I493
tp498
a(I14
I494
tp499
a(I398
I495
tp500
a(I97
I496
tp501
a(I52
I497
tp502
a(I342
I497
tp503
a(I466
I497
tp504
a(I67
I498
tp505
a(I95
I498
tp506
a(I111
I498
tp507
a(I239
I498
tp508
a(I322
I498
tp509
a(I466
I498
tp510
a(I162
I499
tp511
a(I312
I499
tp512
a(I329
I499
tp513
a(I196
I502
tp514
a(I25
I503
tp515
a(I96
I503
tp516
a(I141
I503
tp517
a(I135
I504
tp518
a(I143
I504
tp519
a(I182
I504
tp520
a(I253
I504
tp521
a(I276
I504
tp522
a(I38
I506
tp523
a(I217
I506
tp524
a(I276
I506
tp525
a(I117
I507
tp526
a(I31
I508
tp527
a(I42
I508
tp528
a(I97
I508
tp529
a(I145
I508
tp530
a(I416
I508
tp531
a(I68
I509
tp532
a(I121
I509
tp533
a(I260
I509
tp534
a(I292
I510
tp535
a(I202
I511
tp536
a(I368
I511
tp537
a(I435
I511
tp538
a(I306
I512
tp539
a(I204
I513
tp540
a(I239
I513
tp541
a(I415
I513
tp542
a(I150
I514
tp543
a(I187
I514
tp544
a(I465
I514
tp545
a(I165
I515
tp546
a(I396
I515
tp547
a(I505
I515
tp548
a(I275
I516
tp549
a(I95
I517
tp550
a(I171
I518
tp551
a(I198
I518
tp552
a(I427
I518
tp553
a(I458
I518
tp554
a(I188
I519
tp555
a(I232
I519
tp556
a(I338
I519
tp557
a(I226
I520
tp558
a(I312
I520
tp559
a(I60
I521
tp560
a(I156
I521
tp561
a(I429
I521
tp562
a(I127
I522
tp563
a(I284
I522
tp564
a(I482
I522
tp565
a(I21
I523
tp566
a(I372
I523
tp567
a(I426
I523
tp568
a(I387
I524
tp569
a(I71
I525
tp570
a(I172
I525
tp571
a(I344
I525
tp572
a(I390
I525
tp573
a(I63
I526
tp574
a(I80
I526
tp575
a(I254
I526
tp576
a(I4
I527
tp577
a(I92
I527
tp578
a(I170
I527
tp579
a(I287
I527
tp580
a(I124
I528
tp581
a(I135
I528
tp582
a(I383
I528
tp583
a(I387
I528
tp584
a(I425
I528
tp585
a(I451
I528
tp586
a(I120
I529
tp587
a(I279
I529
tp588
a(I289
I529
tp589
a(I528
I529
tp590
a(I256
I530
tp591
a(I376
I530
tp592
a(I253
I531
tp593
a(I315
I531
tp594
a(I498
I531
tp595
a(I101
I532
tp596
a(I466
I532
tp597
a(I50
I533
tp598
a(I362
I533
tp599
a(I415
I533
tp600
a(I301
I534
tp601
a(I406
I534
tp602
a(I27
I535
tp603
a(I40
I537
tp604
a(I178
I539
tp605
a(I305
I539
tp606
a(I336
I539
tp607
a(I382
I539
tp608
a(I49
I540
tp609
a(I94
I540
tp610
a(I156
I540
tp611
a(I169
I540
tp612
a(I109
I541
tp613
a(I116
I542
tp614
a(I131
I542
tp615
a(I166
I543
tp616
a(I389
I543
tp617
a(I267
I544
tp618
a(I271
I544
tp619
a(I432
I544
tp620
a(I100
I545
tp621
a(I105
I545
tp622
a(I265
I545
tp623
a(I32
I547
tp624
a(I70
I547
tp625
a(I143
I547
tp626
a(I370
I547
tp627
a(I528
I548
tp628
a(I317
I549
tp629
a(I26
I550
tp630
a(I146
I550
tp631
a(I317
I550
tp632
a(I491
I550
tp633
a(I379
I551
tp634
a(I415
I551
tp635
a(I468
I551
tp636
a(I483
I551
tp637
a(I144
I552
tp638
a(I246
I552
tp639
a(I323
I552
tp640
a(I18
I553
tp641
a(I22
I554
tp642
a(I35
I554
tp643
a(I238
I554
tp644
a(I355
I554
tp645
a(I537
I556
tp646
a(I198
I557
tp647
a(I199
I557
tp648
a(I296
I557
tp649
a(I298
I557
tp650
a(I438
I557
tp651
a(I486
I557
tp652
a(I555
I557
tp653
a(I186
I558
tp654
a(I82
I559
tp655
a(I295
I559
tp656
a(I324
I559
tp657
a(I362
I559
tp658
a(I504
I559
tp659
a(I470
I560
tp660
a(I489
I560
tp661
a(I84
I561
tp662
a(I96
I561
tp663
a(I384
I561
tp664
a(I93
I562
tp665
a(I109
I562
tp666
a(I532
I562
tp667
a(I249
I563
tp668
a(I558
I563
tp669
a(I25
I564
tp670
a(I126
I564
tp671
a(I385
I564
tp672
a(I535
I564
tp673
a(I41
I566
tp674
a(I76
I566
tp675
a(I145
I566
tp676
a(I217
I566
tp677
a(I231
I567
tp678
a(I489
I567
tp679
a(I244
I568
tp680
a(I494
I568
tp681
a(I94
I569
tp682
a(I508
I569
tp683
a(I418
I570
tp684
a(I538
I570
tp685
a(I197
I572
tp686
a(I330
I572
tp687
a(I204
I573
tp688
a(I62
I574
tp689
a(I222
I574
tp690
a(I475
I574
tp691
a(I172
I576
tp692
a(I551
I576
tp693
a(I550
I577
tp694
a(I70
I578
tp695
a(I221
I579
tp696
a(I223
I579
tp697
a(I131
I580
tp698
a(I327
I580
tp699
a(I556
I580
tp700
a(I25
I581
tp701
a(I518
I581
tp702
a(I107
I582
tp703
a(I160
I582
tp704
a(I324
I582
tp705
a(I341
I582
tp706
a(I67
I583
tp707
a(I77
I583
tp708
a(I311
I583
tp709
a(I315
I584
tp710
a(I361
I584
tp711
a(I481
I584
tp712
a(I33
I585
tp713
a(I405
I585
tp714
a(I298
I586
tp715
a(I310
I587
tp716
a(I220
I588
tp717
a(I555
I588
tp718
a(I219
I589
tp719
a(I296
I589
tp720
a(I384
I589
tp721
a(I445
I589
tp722
a(I203
I590
tp723
a(I229
I590
tp724
a(I265
I590
tp725
a(I355
I590
tp726
a(I374
I590
tp727
a(I542
I590
tp728
a(I192
I592
tp729
a(I455
I592
tp730
a(I550
I592
tp731
a(I563
I592
tp732
a(I155
I593
tp733
a(I582
I593
tp734
a(I589
I593
tp735
a(I22
I594
tp736
a(I371
I594
tp737
a(I188
I596
tp738
a(I557
I596
tp739
a(I46
I597
tp740
a(I20
I598
tp741
a(I296
I598
tp742
a(I310
I598
tp743
a(I446
I598
tp744
a(I3
I599
tp745
a(I43
I599
tp746
a(I63
I599
tp747
a(I563
I599
tp748
a(I365
I600
tp749
a(I403
I600
tp750
a(I570
I600
tp751
a(I369
I601
tp752
a(I402
I601
tp753
a(I416
I601
tp754
a(I23
I602
tp755
a(I249
I602
tp756
a(I268
I602
tp757
a(I397
I602
tp758
a(I564
I602
tp759
a(I45
I603
tp760
a(I194
I603
tp761
a(I484
I603
tp762
a(I219
I604
tp763
a(I574
I604
tp764
a(I155
I605
tp765
a(I180
I605
tp766
a(I211
I605
tp767
a(I48
I606
tp768
a(I99
I606
tp769
a(I124
I606
tp770
a(I315
I606
tp771
a(I396
I606
tp772
a(I418
I606
tp773
a(I186
I607
tp774
a(I213
I607
tp775
a(I418
I607
tp776
a(I435
I607
tp777
a(I167
I608
tp778
a(I361
I608
tp779
a(I477
I608
tp780
a(I140
I609
tp781
a(I179
I609
tp782
a(I358
I610
tp783
a(I416
I611
tp784
a(I173
I612
tp785
a(I226
I612
tp786
a(I376
I612
tp787
a(I19
I613
tp788
a(I254
I613
tp789
a(I89
I614
tp790
a(I546
I614
tp791
a(I397
I615
tp792
a(I69
I616
tp793
a(I58
I617
tp794
a(I91
I617
tp795
a(I228
I617
tp796
a(I322
I617
tp797
a(I387
I617
tp798
a(I547
I617
tp799
a(I14
I618
tp800
a(I75
I618
tp801
a(I228
I618
tp802
a(I430
I618
tp803
a(I466
I618
tp804
a(I39
I619
tp805
a(I112
I619
tp806
a(I178
I619
tp807
a(I278
I620
tp808
a(I370
I620
tp809
a(I455
I620
tp810
a(I272
I621
tp811
a(I303
I621
tp812
a(I312
I621
tp813
a(I595
I622
tp814
a(I195
I623
tp815
a(I372
I623
tp816
a(I435
I623
tp817
a(I478
I623
tp818
a(I33
I624
tp819
a(I401
I624
tp820
a(I546
I624
tp821
a(I402
I625
tp822
a(I586
I625
tp823
a(I9
I626
tp824
a(I60
I626
tp825
a(I250
I627
tp826
a(I550
I627
tp827
a(I561
I627
tp828
a(I387
I628
tp829
a(I451
I628
tp830
a(I464
I628
tp831
a(I140
I629
tp832
a(I354
I629
tp833
a(I400
I629
tp834
a(I492
I629
tp835
a(I575
I629
tp836
a(I597
I629
tp837
a(I176
I630
tp838
a(I98
I631
tp839
a(I394
I631
tp840
a(I2
I632
tp841
a(I466
I632
tp842
a(I321
I633
tp843
a(I427
I633
tp844
a(I453
I633
tp845
a(I254
I634
tp846
a(I351
I634
tp847
a(I65
I635
tp848
a(I442
I635
tp849
a(I449
I635
tp850
a(I18
I636
tp851
a(I460
I636
tp852
a(I566
I636
tp853
a(I46
I637
tp854
a(I184
I637
tp855
a(I325
I637
tp856
a(I434
I637
tp857
a(I501
I637
tp858
a(I239
I638
tp859
a(I572
I638
tp860
a(I86
I639
tp861
a(I322
I640
tp862
a(I294
I641
tp863
a(I586
I641
tp864
a(I503
I642
tp865
a(I540
I642
tp866
a(I186
I643
tp867
a(I187
I643
tp868
a(I375
I643
tp869
a(I465
I643
tp870
a(I521
I643
tp871
a(I351
I644
tp872
a(I69
I645
tp873
a(I278
I645
tp874
a(I344
I645
tp875
a(I639
I645
tp876
a(I404
I646
tp877
a(I32
I647
tp878
a(I44
I647
tp879
a(I515
I647
tp880
a(I110
I648
tp881
a(I226
I648
tp882
a(I266
I649
tp883
a(I283
I649
tp884
a(I529
I649
tp885
a(I564
I649
tp886
a(I633
I649
tp887
a(I45
I650
tp888
a(I70
I651
tp889
a(I76
I651
tp890
a(I396
I651
tp891
a(I161
I652
tp892
a(I259
I652
tp893
a(I295
I652
tp894
a(I464
I652
tp895
a(I578
I652
tp896
a(I630
I652
tp897
a(I281
I654
tp898
a(I292
I654
tp899
a(I51
I655
tp900
a(I253
I655
tp901
a(I532
I655
tp902
a(I17
I657
tp903
a(I53
I657
tp904
a(I325
I658
tp905
a(I49
I659
tp906
a(I294
I659
tp907
a(I347
I659
tp908
a(I416
I659
tp909
a(I36
I660
tp910
a(I66
I660
tp911
a(I210
I660
tp912
a(I403
I660
tp913
a(I418
I661
tp914
a(I444
I661
tp915
a(I134
I662
tp916
a(I227
I662
tp917
a(I289
I662
tp918
a(I423
I662
tp919
a(I565
I663
tp920
a(I198
I664
tp921
a(I285
I664
tp922
a(I73
I665
tp923
a(I421
I665
tp924
a(I426
I665
tp925
a(I159
I666
tp926
a(I320
I666
tp927
a(I89
I667
tp928
a(I131
I667
tp929
a(I233
I667
tp930
a(I368
I667
tp931
a(I182
I668
tp932
a(I500
I668
tp933
a(I549
I668
tp934
a(I632
I668
tp935
a(I9
I669
tp936
a(I28
I670
tp937
a(I502
I670
tp938
a(I526
I670
tp939
a(I14
I671
tp940
a(I421
I671
tp941
a(I392
I672
tp942
a(I565
I672
tp943
a(I586
I672
tp944
a(I179
I673
tp945
a(I377
I673
tp946
a(I43
I674
tp947
a(I101
I674
tp948
a(I255
I674
tp949
a(I470
I674
tp950
a(I642
I674
tp951
a(I669
I674
tp952
a(I181
I675
tp953
a(I270
I675
tp954
a(I525
I675
tp955
a(I589
I675
tp956
a(I460
I676
tp957
a(I52
I677
tp958
a(I479
I677
tp959
a(I159
I678
tp960
a(I274
I678
tp961
a(I287
I678
tp962
a(I21
I679
tp963
a(I142
I679
tp964
a(I278
I679
tp965
a(I323
I679
tp966
a(I459
I679
tp967
a(I354
I680
tp968
a(I500
I680
tp969
a(I622
I680
tp970
a(I659
I680
tp971
a(I629
I681
tp972
a(I500
I682
tp973
a(I662
I682
tp974
a(I10
I683
tp975
a(I172
I683
tp976
a(I202
I683
tp977
a(I553
I683
tp978
a(I266
I684
tp979
a(I647
I684
tp980
a(I248
I685
tp981
a(I540
I685
tp982
a(I208
I686
tp983
a(I134
I687
tp984
a(I252
I687
tp985
a(I340
I687
tp986
a(I131
I688
tp987
a(I414
I688
tp988
a(I547
I688
tp989
a(I633
I688
tp990
a(I373
I689
tp991
a(I79
I690
tp992
a(I236
I690
tp993
a(I447
I690
tp994
a(I151
I691
tp995
a(I160
I691
tp996
a(I262
I691
tp997
a(I367
I691
tp998
a(I581
I691
tp999
a(I473
I692
tp1000
a(I677
I692
tp1001
a(I514
I693
tp1002
a(I278
I694
tp1003
a(I444
I694
tp1004
a(I682
I694
tp1005
a(I225
I695
tp1006
a(I668
I695
tp1007
a(I170
I696
tp1008
a(I329
I696
tp1009
a(I442
I696
tp1010
a(I498
I696
tp1011
a(I217
I697
tp1012
a(I311
I697
tp1013
a(I467
I697
tp1014
a(I136
I698
tp1015
a(I405
I698
tp1016
a(I659
I698
tp1017
a(I77
I699
tp1018
a(I191
I699
tp1019
a(I389
I699
tp1020
a(I508
I699
tp1021
a(I29
I700
tp1022
a(I34
I700
tp1023
a(I640
I700
tp1024
a(I74
I701
tp1025
a(I156
I701
tp1026
a(I283
I701
tp1027
a(I471
I701
tp1028
a(I566
I701
tp1029
a(I680
I701
tp1030
a(I99
I702
tp1031
a(I274
I702
tp1032
a(I367
I702
tp1033
a(I412
I703
tp1034
a(I670
I704
tp1035
a(I280
I705
tp1036
a(I601
I705
tp1037
a(I621
I705
tp1038
a(I671
I706
tp1039
a(I67
I707
tp1040
a(I187
I707
tp1041
a(I644
I708
tp1042
a(I237
I709
tp1043
a(I643
I709
tp1044
a(I231
I710
tp1045
a(I289
I710
tp1046
a(I106
I711
tp1047
a(I375
I711
tp1048
a(I537
I711
tp1049
a(I647
I711
tp1050
a(I47
I712
tp1051
a(I94
I712
tp1052
a(I193
I713
tp1053
a(I276
I713
tp1054
a(I394
I713
tp1055
a(I566
I713
tp1056
a(I123
I714
tp1057
a(I180
I714
tp1058
a(I285
I714
tp1059
a(I322
I714
tp1060
a(I405
I714
tp1061
a(I507
I714
tp1062
a(I27
I715
tp1063
a(I202
I715
tp1064
a(I654
I715
tp1065
a(I697
I715
tp1066
a(I535
I716
tp1067
a(I542
I716
tp1068
a(I97
I717
tp1069
a(I218
I717
tp1070
a(I334
I717
tp1071
a(I368
I717
tp1072
a(I578
I717
tp1073
a(I73
I718
tp1074
a(I117
I718
tp1075
a(I196
I718
tp1076
a(I448
I718
tp1077
a(I679
I718
tp1078
a(I689
I718
tp1079
a(I421
I719
tp1080
a(I151
I720
tp1081
a(I259
I720
tp1082
a(I406
I720
tp1083
a(I464
I720
tp1084
a(I484
I720
tp1085
a(I497
I720
tp1086
a(I613
I720
tp1087
a(I47
I721
tp1088
a(I158
I721
tp1089
a(I467
I721
tp1090
a(I192
I722
tp1091
a(I194
I722
tp1092
a(I581
I722
tp1093
a(I699
I722
tp1094
a(I117
I723
tp1095
a(I454
I723
tp1096
a(I517
I723
tp1097
a(I56
I724
tp1098
a(I270
I724
tp1099
a(I450
I724
tp1100
a(I519
I724
tp1101
a(I227
I725
tp1102
a(I355
I725
tp1103
a(I407
I725
tp1104
a(I673
I725
tp1105
a(I693
I725
tp1106
a(I341
I726
tp1107
a(I578
I726
tp1108
a(I621
I726
tp1109
a(I20
I727
tp1110
a(I135
I728
tp1111
a(I576
I728
tp1112
a(I642
I728
tp1113
a(I51
I729
tp1114
a(I294
I729
tp1115
a(I317
I729
tp1116
a(I339
I729
tp1117
a(I466
I729
tp1118
a(I619
I729
tp1119
a(I721
I729
tp1120
a(I388
I730
tp1121
a(I690
I730
tp1122
a(I630
I731
tp1123
a(I72
I732
tp1124
a(I175
I732
tp1125
a(I599
I732
tp1126
a(I672
I732
tp1127
a(I105
I733
tp1128
a(I283
I733
tp1129
a(I475
I734
tp1130
a(I541
I734
tp1131
a(I618
I734
tp1132
a(I721
I734
tp1133
a(I59
I735
tp1134
a(I138
I735
tp1135
a(I506
I735
tp1136
a(I608
I735
tp1137
a(I32
I736
tp1138
a(I239
I736
tp1139
a(I614
I736
tp1140
a(I3
I737
tp1141
a(I462
I737
tp1142
a(I455
I738
tp1143
a(I371
I739
tp1144
a(I396
I739
tp1145
a(I409
I739
tp1146
a(I38
I740
tp1147
a(I653
I740
tp1148
a(I359
I741
tp1149
a(I375
I741
tp1150
a(I593
I741
tp1151
a(I451
I742
tp1152
a(I557
I742
tp1153
a(I711
I743
tp1154
a(I575
I744
tp1155
a(I424
I745
tp1156
a(I445
I745
tp1157
a(I81
I746
tp1158
a(I174
I746
tp1159
a(I422
I746
tp1160
a(I517
I746
tp1161
a(I553
I746
tp1162
a(I596
I746
tp1163
a(I605
I746
tp1164
a(I640
I746
tp1165
a(I625
I747
tp1166
a(I42
I748
tp1167
a(I81
I748
tp1168
a(I320
I748
tp1169
a(I480
I748
tp1170
a(I539
I748
tp1171
a(I454
I749
tp1172
a(I588
I749
tp1173
a(I607
I749
tp1174
a(I58
I750
tp1175
a(I406
I750
tp1176
a(I584
I750
tp1177
a(I708
I750
tp1178
a(I73
I751
tp1179
a(I215
I751
tp1180
a(I294
I751
tp1181
a(I656
I751
tp1182
a(I700
I751
tp1183
a(I718
I751
tp1184
a(I19
I752
tp1185
a(I80
I752
tp1186
a(I409
I752
tp1187
a(I124
I753
tp1188
a(I168
I754
tp1189
a(I181
I754
tp1190
a(I707
I754
tp1191
a(I3
I755
tp1192
a(I367
I755
tp1193
a(I553
I755
tp1194
a(I660
I755
tp1195
a(I148
I757
tp1196
a(I479
I758
tp1197
a(I592
I758
tp1198
a(I630
I758
tp1199
a(I356
I759
tp1200
a(I467
I759
tp1201
a(I480
I759
tp1202
a(I523
I759
tp1203
a(I556
I759
tp1204
a(I65
I760
tp1205
a(I165
I760
tp1206
a(I208
I760
tp1207
a(I358
I760
tp1208
a(I203
I761
tp1209
a(I383
I761
tp1210
a(I644
I761
tp1211
a(I662
I761
tp1212
a(I715
I761
tp1213
a(I92
I762
tp1214
a(I149
I762
tp1215
a(I305
I762
tp1216
a(I378
I762
tp1217
a(I447
I762
tp1218
a(I252
I763
tp1219
a(I326
I763
tp1220
a(I550
I763
tp1221
a(I606
I763
tp1222
a(I56
I764
tp1223
a(I129
I765
tp1224
a(I168
I765
tp1225
a(I537
I765
tp1226
a(I611
I765
tp1227
a(I679
I766
tp1228
a(I270
I767
tp1229
a(I494
I767
tp1230
a(I683
I767
tp1231
a(I701
I767
tp1232
a(I246
I768
tp1233
a(I369
I768
tp1234
a(I480
I768
tp1235
a(I497
I768
tp1236
a(I543
I768
tp1237
a(I103
I769
tp1238
a(I244
I769
tp1239
a(I332
I769
tp1240
a(I412
I769
tp1241
a(I651
I769
tp1242
a(I25
I770
tp1243
a(I488
I770
tp1244
a(I493
I770
tp1245
a(I255
I771
tp1246
a(I530
I771
tp1247
a(I666
I771
tp1248
a(I154
I772
tp1249
a(I234
I772
tp1250
a(I64
I773
tp1251
a(I286
I774
tp1252
a(I192
I775
tp1253
a(I301
I775
tp1254
a(I508
I775
tp1255
a(I581
I776
tp1256
a(I630
I776
tp1257
a(I46
I777
tp1258
a(I216
I777
tp1259
a(I553
I777
tp1260
a(I584
I777
tp1261
a(I775
I777
tp1262
a(I92
I778
tp1263
a(I107
I778
tp1264
a(I320
I778
tp1265
a(I579
I778
tp1266
a(I125
I779
tp1267
a(I412
I779
tp1268
a(I481
I779
tp1269
a(I88
I780
tp1270
a(I127
I780
tp1271
a(I141
I780
tp1272
a(I501
I780
tp1273
a(I33
I781
tp1274
a(I133
I781
tp1275
a(I165
I781
tp1276
a(I390
I781
tp1277
a(I23
I782
tp1278
a(I279
I782
tp1279
a(I718
I782
tp1280
a(I417
I784
tp1281
a(I178
I785
tp1282
a(I228
I785
tp1283
a(I445
I786
tp1284
a(I632
I787
tp1285
a(I364
I788
tp1286
a(I439
I788
tp1287
a(I528
I788
tp1288
a(I606
I788
tp1289
a(I40
I789
tp1290
a(I365
I789
tp1291
a(I502
I789
tp1292
a(I506
I789
tp1293
a(I303
I790
tp1294
a(I350
I790
tp1295
a(I353
I790
tp1296
a(I648
I790
tp1297
a(I693
I790
tp1298
a(I759
I790
tp1299
a(I18
I791
tp1300
a(I520
I791
tp1301
a(I588
I791
tp1302
a(I590
I791
tp1303
a(I744
I791
tp1304
a(I194
I792
tp1305
a(I470
I792
tp1306
a(I778
I792
tp1307
a(I10
I793
tp1308
a(I58
I793
tp1309
a(I456
I793
tp1310
a(I549
I793
tp1311
a(I562
I793
tp1312
a(I703
I793
tp1313
a(I125
I794
tp1314
a(I220
I794
tp1315
a(I325
I794
tp1316
a(I562
I794
tp1317
a(I32
I795
tp1318
a(I99
I795
tp1319
a(I336
I795
tp1320
a(I411
I795
tp1321
a(I187
I796
tp1322
a(I300
I796
tp1323
a(I414
I796
tp1324
a(I476
I797
tp1325
a(I690
I797
tp1326
a(I788
I797
tp1327
a(I393
I798
tp1328
a(I133
I799
tp1329
a(I631
I799
tp1330
a(I351
I800
tp1331
a(I386
I800
tp1332
a(I391
I800
tp1333
a(I501
I800
tp1334
a(I146
I801
tp1335
a(I183
I801
tp1336
a(I580
I801
tp1337
a(I591
I801
tp1338
a(I670
I801
tp1339
a(I441
I802
tp1340
a(I42
I803
tp1341
a(I175
I803
tp1342
a(I413
I803
tp1343
a(I501
I803
tp1344
a(I517
I803
tp1345
a(I759
I804
tp1346
a(I99
I806
tp1347
a(I137
I806
tp1348
a(I227
I806
tp1349
a(I741
I807
tp1350
a(I103
I808
tp1351
a(I410
I808
tp1352
a(I469
I808
tp1353
a(I569
I809
tp1354
a(I120
I810
tp1355
a(I278
I810
tp1356
a(I706
I810
tp1357
a(I343
I811
tp1358
a(I384
I811
tp1359
a(I457
I811
tp1360
a(I494
I811
tp1361
a(I100
I812
tp1362
a(I348
I812
tp1363
a(I483
I812
tp1364
a(I573
I812
tp1365
a(I665
I812
tp1366
a(I769
I813
tp1367
a(I74
I814
tp1368
a(I349
I814
tp1369
a(I495
I814
tp1370
a(I577
I814
tp1371
a(I663
I814
tp1372
a(I770
I814
tp1373
a(I8
I815
tp1374
a(I282
I815
tp1375
a(I518
I815
tp1376
a(I66
I816
tp1377
a(I284
I817
tp1378
a(I568
I817
tp1379
a(I752
I817
tp1380
a(I367
I818
tp1381
a(I439
I818
tp1382
a(I192
I819
tp1383
a(I318
I819
tp1384
a(I53
I820
tp1385
a(I137
I820
tp1386
a(I308
I820
tp1387
a(I320
I821
tp1388
a(I417
I821
tp1389
a(I707
I821
tp1390
a(I100
I822
tp1391
a(I299
I822
tp1392
a(I363
I822
tp1393
a(I713
I822
tp1394
a(I567
I823
tp1395
a(I290
I824
tp1396
a(I323
I824
tp1397
a(I704
I824
tp1398
a(I93
I825
tp1399
a(I532
I825
tp1400
a(I629
I825
tp1401
a(I129
I826
tp1402
a(I580
I826
tp1403
a(I609
I826
tp1404
a(I638
I826
tp1405
a(I294
I827
tp1406
a(I313
I827
tp1407
a(I374
I827
tp1408
a(I603
I827
tp1409
a(I769
I827
tp1410
a(I396
I828
tp1411
a(I552
I828
tp1412
a(I613
I828
tp1413
a(I106
I829
tp1414
a(I147
I829
tp1415
a(I264
I829
tp1416
a(I708
I829
tp1417
a(I722
I829
tp1418
a(I165
I830
tp1419
a(I663
I830
tp1420
a(I754
I830
tp1421
a(I148
I831
tp1422
a(I417
I831
tp1423
a(I380
I832
tp1424
a(I553
I832
tp1425
a(I570
I832
tp1426
a(I583
I832
tp1427
a(I374
I833
tp1428
a(I716
I833
tp1429
a(I123
I834
tp1430
a(I243
I834
tp1431
a(I312
I834
tp1432
a(I437
I834
tp1433
a(I752
I834
tp1434
a(I16
I835
tp1435
a(I373
I835
tp1436
a(I516
I835
tp1437
a(I625
I835
tp1438
a(I672
I835
tp1439
a(I797
I835
tp1440
a(I648
I836
tp1441
a(I86
I837
tp1442
a(I124
I837
tp1443
a(I268
I838
tp1444
a(I321
I838
tp1445
a(I482
I838
tp1446
a(I541
I838
tp1447
a(I580
I838
tp1448
a(I593
I838
tp1449
a(I594
I838
tp1450
a(I648
I838
tp1451
a(I221
I839
tp1452
a(I551
I839
tp1453
a(I660
I839
tp1454
a(I664
I839
tp1455
a(I687
I839
tp1456
a(I749
I839
tp1457
a(I775
I839
tp1458
a(I108
I840
tp1459
a(I317
I840
tp1460
a(I717
I840
tp1461
a(I567
I841
tp1462
a(I619
I842
tp1463
a(I680
I842
tp1464
a(I718
I842
tp1465
a(I707
I843
tp1466
a(I137
I844
tp1467
a(I142
I844
tp1468
a(I173
I844
tp1469
a(I677
I844
tp1470
a(I23
I845
tp1471
a(I40
I845
tp1472
a(I91
I845
tp1473
a(I306
I845
tp1474
a(I327
I845
tp1475
a(I549
I845
tp1476
a(I60
I846
tp1477
a(I73
I846
tp1478
a(I530
I846
tp1479
a(I572
I846
tp1480
a(I699
I846
tp1481
a(I230
I847
tp1482
a(I248
I847
tp1483
a(I407
I847
tp1484
a(I692
I848
tp1485
a(I703
I848
tp1486
a(I782
I848
tp1487
a(I805
I848
tp1488
a(I17
I849
tp1489
a(I65
I849
tp1490
a(I353
I849
tp1491
a(I361
I849
tp1492
a(I58
I850
tp1493
a(I473
I850
tp1494
a(I565
I850
tp1495
a(I807
I850
tp1496
a(I45
I851
tp1497
a(I191
I851
tp1498
a(I194
I851
tp1499
a(I380
I851
tp1500
a(I427
I851
tp1501
a(I750
I851
tp1502
a(I512
I852
tp1503
a(I515
I852
tp1504
a(I778
I852
tp1505
a(I405
I853
tp1506
a(I464
I853
tp1507
a(I575
I853
tp1508
a(I699
I853
tp1509
a(I34
I854
tp1510
a(I550
I854
tp1511
a(I839
I854
tp1512
a(I662
I855
tp1513
a(I254
I856
tp1514
a(I641
I856
tp1515
a(I806
I856
tp1516
a(I48
I857
tp1517
a(I79
I857
tp1518
a(I354
I857
tp1519
a(I503
I857
tp1520
a(I648
I857
tp1521
a(I93
I858
tp1522
a(I135
I858
tp1523
a(I142
I858
tp1524
a(I170
I858
tp1525
a(I317
I858
tp1526
a(I298
I859
tp1527
a(I498
I859
tp1528
a(I662
I859
tp1529
a(I716
I859
tp1530
a(I461
I860
tp1531
a(I758
I860
tp1532
a(I824
I860
tp1533
a(I327
I861
tp1534
a(I511
I861
tp1535
a(I705
I861
tp1536
a(I833
I861
tp1537
a(I307
I862
tp1538
a(I806
I862
tp1539
a(I199
I863
tp1540
a(I322
I863
tp1541
a(I749
I863
tp1542
a(I620
I864
tp1543
a(I423
I865
tp1544
a(I498
I865
tp1545
a(I861
I865
tp1546
a(I3
I866
tp1547
a(I127
I866
tp1548
a(I195
I866
tp1549
a(I447
I866
tp1550
a(I541
I866
tp1551
a(I756
I866
tp1552
a(I806
I866
tp1553
a(I341
I867
tp1554
a(I404
I867
tp1555
a(I504
I867
tp1556
a(I749
I867
tp1557
a(I344
I868
tp1558
a(I681
I869
tp1559
a(I125
I870
tp1560
a(I169
I871
tp1561
a(I402
I871
tp1562
a(I732
I871
tp1563
a(I128
I872
tp1564
a(I530
I872
tp1565
a(I201
I873
tp1566
a(I328
I873
tp1567
a(I639
I873
tp1568
a(I284
I874
tp1569
a(I412
I874
tp1570
a(I482
I874
tp1571
a(I563
I874
tp1572
a(I571
I874
tp1573
a(I797
I874
tp1574
a(I91
I875
tp1575
a(I729
I875
tp1576
a(I275
I876
tp1577
a(I323
I876
tp1578
a(I516
I876
tp1579
a(I566
I876
tp1580
a(I670
I876
tp1581
a(I859
I876
tp1582
a(I48
I877
tp1583
a(I62
I877
tp1584
a(I174
I877
tp1585
a(I513
I877
tp1586
a(I573
I877
tp1587
a(I65
I878
tp1588
a(I99
I878
tp1589
a(I161
I878
tp1590
a(I341
I878
tp1591
a(I547
I878
tp1592
a(I733
I878
tp1593
a(I41
I879
tp1594
a(I265
I879
tp1595
a(I374
I879
tp1596
a(I480
I879
tp1597
a(I139
I880
tp1598
a(I279
I880
tp1599
a(I425
I881
tp1600
a(I856
I881
tp1601
a(I116
I882
tp1602
a(I450
I882
tp1603
a(I635
I882
tp1604
a(I169
I883
tp1605
a(I177
I883
tp1606
a(I236
I883
tp1607
a(I567
I883
tp1608
a(I872
I883
tp1609
a(I49
I884
tp1610
a(I368
I884
tp1611
a(I518
I884
tp1612
a(I801
I884
tp1613
a(I815
I884
tp1614
a(I13
I885
tp1615
a(I175
I885
tp1616
a(I736
I885
tp1617
a(I338
I886
tp1618
a(I667
I886
tp1619
a(I830
I886
tp1620
a(I120
I887
tp1621
a(I326
I887
tp1622
a(I330
I887
tp1623
a(I19
I888
tp1624
a(I20
I888
tp1625
a(I361
I888
tp1626
a(I446
I888
tp1627
a(I661
I888
tp1628
a(I717
I888
tp1629
a(I851
I888
tp1630
a(I857
I888
tp1631
a(I287
I889
tp1632
a(I859
I889
tp1633
a(I152
I890
tp1634
a(I762
I890
tp1635
a(I773
I890
tp1636
a(I337
I891
tp1637
a(I649
I891
tp1638
a(I676
I891
tp1639
a(I436
I892
tp1640
a(I481
I892
tp1641
a(I742
I892
tp1642
a(I826
I892
tp1643
a(I867
I892
tp1644
a(I288
I893
tp1645
a(I743
I893
tp1646
a(I862
I893
tp1647
a(I164
I894
tp1648
a(I196
I894
tp1649
a(I496
I894
tp1650
a(I565
I894
tp1651
a(I733
I894
tp1652
a(I802
I894
tp1653
a(I103
I895
tp1654
a(I308
I895
tp1655
a(I435
I895
tp1656
a(I604
I895
tp1657
a(I729
I895
tp1658
a(I243
I896
tp1659
a(I261
I896
tp1660
a(I659
I896
tp1661
a(I161
I897
tp1662
a(I538
I897
tp1663
a(I845
I897
tp1664
a(I59
I898
tp1665
a(I233
I898
tp1666
a(I297
I898
tp1667
a(I526
I898
tp1668
a(I610
I898
tp1669
a(I827
I898
tp1670
a(I851
I898
tp1671
a(I273
I899
tp1672
a(I879
I899
tp1673
a(I112
I900
tp1674
a(I113
I900
tp1675
a(I131
I900
tp1676
a(I259
I900
tp1677
a(I455
I900
tp1678
a(I644
I900
tp1679
a(I844
I900
tp1680
a(I889
I900
tp1681
a(I65
I901
tp1682
a(I121
I901
tp1683
a(I251
I901
tp1684
a(I304
I901
tp1685
a(I644
I901
tp1686
a(I877
I901
tp1687
a(I80
I902
tp1688
a(I388
I902
tp1689
a(I403
I902
tp1690
a(I123
I903
tp1691
a(I262
I903
tp1692
a(I277
I903
tp1693
a(I581
I903
tp1694
a(I78
I904
tp1695
a(I115
I904
tp1696
a(I460
I904
tp1697
a(I286
I905
tp1698
a(I314
I905
tp1699
a(I462
I905
tp1700
a(I548
I905
tp1701
a(I549
I905
tp1702
a(I568
I905
tp1703
a(I600
I905
tp1704
a(I670
I905
tp1705
a(I773
I905
tp1706
a(I820
I905
tp1707
a(I833
I905
tp1708
a(I412
I906
tp1709
a(I831
I906
tp1710
a(I848
I906
tp1711
a(I30
I907
tp1712
a(I501
I907
tp1713
a(I576
I907
tp1714
a(I766
I907
tp1715
a(I783
I907
tp1716
a(I147
I908
tp1717
a(I708
I908
tp1718
a(I207
I909
tp1719
a(I688
I909
tp1720
a(I866
I909
tp1721
a(I22
I910
tp1722
a(I787
I910
tp1723
a(I214
I911
tp1724
a(I466
I911
tp1725
a(I631
I911
tp1726
a(I96
I912
tp1727
a(I879
I912
tp1728
a(I635
I913
tp1729
a(I871
I913
tp1730
a(I187
I914
tp1731
a(I195
I914
tp1732
a(I378
I914
tp1733
a(I81
I915
tp1734
a(I477
I915
tp1735
a(I497
I915
tp1736
a(I502
I915
tp1737
a(I568
I915
tp1738
a(I672
I915
tp1739
a(I294
I916
tp1740
a(I325
I916
tp1741
a(I346
I916
tp1742
a(I503
I916
tp1743
a(I555
I916
tp1744
a(I857
I916
tp1745
a(I894
I916
tp1746
a(I912
I916
tp1747
a(I199
I917
tp1748
a(I538
I917
tp1749
a(I560
I917
tp1750
a(I202
I918
tp1751
a(I412
I918
tp1752
a(I137
I919
tp1753
a(I212
I919
tp1754
a(I267
I919
tp1755
a(I511
I919
tp1756
a(I644
I919
tp1757
a(I854
I919
tp1758
a(I55
I920
tp1759
a(I907
I920
tp1760
a(I459
I921
tp1761
a(I541
I921
tp1762
a(I281
I922
tp1763
a(I294
I922
tp1764
a(I498
I922
tp1765
a(I707
I922
tp1766
a(I912
I922
tp1767
a(I468
I923
tp1768
a(I697
I923
tp1769
a(I710
I923
tp1770
a(I795
I923
tp1771
a(I814
I923
tp1772
a(I909
I923
tp1773
a(I116
I924
tp1774
a(I249
I924
tp1775
a(I532
I924
tp1776
a(I197
I925
tp1777
a(I249
I925
tp1778
a(I356
I925
tp1779
a(I510
I925
tp1780
a(I530
I925
tp1781
a(I837
I925
tp1782
a(I316
I926
tp1783
a(I390
I926
tp1784
a(I596
I926
tp1785
a(I601
I926
tp1786
a(I759
I926
tp1787
a(I136
I927
tp1788
a(I266
I927
tp1789
a(I622
I927
tp1790
a(I633
I927
tp1791
a(I176
I928
tp1792
a(I299
I928
tp1793
a(I341
I928
tp1794
a(I536
I928
tp1795
a(I704
I928
tp1796
a(I792
I928
tp1797
a(I68
I929
tp1798
a(I432
I929
tp1799
a(I760
I929
tp1800
a(I799
I929
tp1801
a(I88
I930
tp1802
a(I609
I930
tp1803
a(I627
I930
tp1804
a(I173
I931
tp1805
a(I394
I931
tp1806
a(I457
I931
tp1807
a(I3
I932
tp1808
a(I79
I932
tp1809
a(I142
I932
tp1810
a(I250
I932
tp1811
a(I690
I932
tp1812
a(I162
I933
tp1813
a(I370
I933
tp1814
a(I130
I934
tp1815
a(I209
I934
tp1816
a(I642
I934
tp1817
a(I785
I934
tp1818
a(I816
I934
tp1819
a(I85
I935
tp1820
a(I218
I935
tp1821
a(I725
I935
tp1822
a(I423
I936
tp1823
a(I825
I936
tp1824
a(I173
I937
tp1825
a(I199
I937
tp1826
a(I363
I937
tp1827
a(I160
I938
tp1828
a(I357
I938
tp1829
a(I453
I938
tp1830
a(I543
I938
tp1831
a(I602
I938
tp1832
a(I737
I938
tp1833
a(I798
I938
tp1834
a(I74
I939
tp1835
a(I210
I939
tp1836
a(I666
I939
tp1837
a(I823
I939
tp1838
a(I927
I939
tp1839
a(I137
I940
tp1840
a(I389
I940
tp1841
a(I478
I940
tp1842
a(I500
I940
tp1843
a(I567
I940
tp1844
a(I812
I940
tp1845
a(I76
I942
tp1846
a(I84
I942
tp1847
a(I432
I942
tp1848
a(I608
I942
tp1849
a(I928
I942
tp1850
a(I38
I943
tp1851
a(I179
I943
tp1852
a(I228
I943
tp1853
a(I548
I943
tp1854
a(I710
I944
tp1855
a(I63
I945
tp1856
a(I490
I945
tp1857
a(I10
I946
tp1858
a(I74
I946
tp1859
a(I310
I946
tp1860
a(I586
I946
tp1861
a(I624
I946
tp1862
a(I637
I946
tp1863
a(I852
I946
tp1864
a(I934
I946
tp1865
a(I113
I947
tp1866
a(I259
I947
tp1867
a(I422
I947
tp1868
a(I575
I947
tp1869
a(I707
I947
tp1870
a(I258
I948
tp1871
a(I658
I948
tp1872
a(I92
I949
tp1873
a(I338
I949
tp1874
a(I344
I949
tp1875
a(I475
I949
tp1876
a(I604
I949
tp1877
a(I309
I950
tp1878
a(I319
I950
tp1879
a(I646
I950
tp1880
a(I872
I950
tp1881
a(I290
I951
tp1882
a(I305
I951
tp1883
a(I327
I951
tp1884
a(I560
I951
tp1885
a(I625
I951
tp1886
a(I771
I951
tp1887
a(I906
I951
tp1888
a(I946
I951
tp1889
a(I69
I952
tp1890
a(I283
I952
tp1891
a(I790
I952
tp1892
a(I61
I953
tp1893
a(I274
I953
tp1894
a(I382
I953
tp1895
a(I451
I953
tp1896
a(I495
I953
tp1897
a(I642
I953
tp1898
a(I700
I953
tp1899
a(I54
I954
tp1900
a(I255
I954
tp1901
a(I433
I954
tp1902
a(I604
I954
tp1903
a(I706
I954
tp1904
a(I858
I954
tp1905
a(I497
I955
tp1906
a(I134
I956
tp1907
a(I642
I956
tp1908
a(I719
I956
tp1909
a(I725
I956
tp1910
a(I769
I956
tp1911
a(I775
I956
tp1912
a(I850
I956
tp1913
a(I234
I957
tp1914
a(I291
I957
tp1915
a(I923
I957
tp1916
a(I939
I957
tp1917
a(I190
I958
tp1918
a(I693
I958
tp1919
a(I703
I958
tp1920
a(I725
I958
tp1921
a(I744
I958
tp1922
a(I788
I958
tp1923
a(I840
I958
tp1924
a(I956
I958
tp1925
a(I397
I959
tp1926
a(I532
I959
tp1927
a(I636
I959
tp1928
a(I14
I960
tp1929
a(I121
I960
tp1930
a(I235
I960
tp1931
a(I519
I960
tp1932
a(I526
I960
tp1933
a(I776
I960
tp1934
a(I840
I960
tp1935
a(I809
I961
tp1936
a(I407
I962
tp1937
a(I673
I962
tp1938
a(I933
I962
tp1939
a(I545
I963
tp1940
a(I645
I963
tp1941
a(I667
I963
tp1942
a(I736
I963
tp1943
a(I117
I964
tp1944
a(I315
I964
tp1945
a(I448
I964
tp1946
a(I291
I965
tp1947
a(I370
I965
tp1948
a(I446
I965
tp1949
a(I460
I965
tp1950
a(I532
I965
tp1951
a(I169
I966
tp1952
a(I211
I966
tp1953
a(I372
I966
tp1954
a(I713
I966
tp1955
a(I941
I966
tp1956
a(I195
I967
tp1957
a(I305
I967
tp1958
a(I469
I967
tp1959
a(I690
I967
tp1960
a(I721
I967
tp1961
a(I44
I968
tp1962
a(I193
I968
tp1963
a(I240
I968
tp1964
a(I318
I968
tp1965
a(I572
I968
tp1966
a(I665
I968
tp1967
a(I457
I969
tp1968
a(I556
I969
tp1969
a(I601
I969
tp1970
a(I919
I969
tp1971
a(I582
I970
tp1972
a(I769
I970
tp1973
a(I314
I971
tp1974
a(I629
I971
tp1975
a(I33
I972
tp1976
a(I357
I972
tp1977
a(I785
I972
tp1978
a(I964
I972
tp1979
a(I224
I973
tp1980
a(I279
I973
tp1981
a(I46
I974
tp1982
a(I204
I974
tp1983
a(I373
I974
tp1984
a(I431
I974
tp1985
a(I436
I974
tp1986
a(I696
I974
tp1987
a(I732
I974
tp1988
a(I940
I974
tp1989
a(I294
I975
tp1990
a(I332
I975
tp1991
a(I384
I976
tp1992
a(I809
I976
tp1993
a(I843
I976
tp1994
a(I220
I977
tp1995
a(I351
I977
tp1996
a(I407
I977
tp1997
a(I494
I977
tp1998
a(I117
I978
tp1999
a(I318
I978
tp2000
a(I627
I978
tp2001
aI00
(dp2002
(dp2003
(dp2004
tp2005
Rp2006
(dp2007
b(lp2008
I1
aI2
aI4
aI8
aI16
aI32
a(lp2009
(lp2010
I40856
aI47731
aI1557
aI0
aI31744
aI26708
aI7124
aI14444
aI42914
aI1954
aI58775
aI58026
aI14628
aI21488
aI18308
aI1954
aI18018
aI1954
aI35263
aI24603
aI7804
aI0
aI25919
aI6845
aI7232
aI34881
aI8119
aI0
aI23955
aI16853
aa(lp2011
I14325
aI58944
aI27564
aI12575
aI69243
aI8285
aI22553
aI20905
aI10133
aI31075
aI24516
aI34835
aI45493
aI39202
aI17185
aI24471
aI11838
aI49882
aI31671
aI44121
aI76555
aI43937
aI15892
aI29582
aI12946
aI21729
aI32217
aI93008
aI10285
aI43746
aa(lp2012
I75573
aI130528
aI49363
aI34255
aI69535
aI66500
aI18184
aI63532
aI34807
aI66834
aI85215
aI111027
aI88709
aI55360
aI51731
aI50085
aI72813
aI83896
aI96693
aI25635
aI47204
aI90854
aI86419
aI36828
aI64748
aI57416
aI151964
aI45428
aI34941
aI79510
aa(lp2013
I112142
aI165613
aI182844
aI67556
aI161883
aI177527
aI124574
aI181973
aI116004
aI210113
aI87084
aI156739
aI130963
aI212581
aI137494
aI101880
aI104200
aI167310
aI175375
aI156521
aI108764
aI97024
aI43300
aI161597
aI191368
aI182245
aI148187
aI118736
aI94124
aI93157
aa(lp2014
I247957
aI270018
aI216222
aI265331
aI230423
aI311645
aI162341
aI178828
aI247561
aI225732
aI305114
aI228236
aI188979
aI347920
aI181747
aI270579
aI254981
aI139260
aI216411
aI245834
aI319581
aI185530
aI198168
aI205177
aI181429
aI279519
aI206123
aI207673
aI290637
aI281939
aa(lp2015
I347724
aI377029
aI294640
aI381376
aI316818
aI426109
aI376490
aI324154
aI319763
aI347799
aI380734
aI420578
aI289136
aI327290
aI332233
aI285400
aI368549
aI373911
aI334722
aI412152
aI308971
aI397335
aI397860
aI373600
aI346816
aI324938
aI381368
aI279385
aI360254
aI332882
aa(lp2016
(lp2017
I40856
aI47731
aI1557
aI0
aI31744
aI26708
aI7124
aI14444
aI42914
aI1954
aI58775
aI58026
aI14628
aI21488
aI18308
aI1954
aI18018
aI1954
aI35263
aI24603
aI7804
aI0
aI25919
aI6845
aI7232
aI34881
aI8119
aI0
aI23955
aI16853
aa(lp2018
I14330
aI58944
aI27781
aI12575
aI70372
aI8286
aI22553
aI21823
aI10133
aI31189
aI24516
aI34841
aI45493
aI39215
aI17185
aI24480
aI11907
aI50067
aI31671
aI44141
aI76557
aI46301
aI15892
aI29729
aI12948
aI21729
aI32217
aI93008
aI10291
aI43746
aa(lp2019
I78152
aI150274
aI49363
aI34267
aI69749
aI66515
aI18228
aI63532
aI34969
aI67213
aI85969
aI112948
aI88841
aI55663
aI53009
aI50272
aI72816
aI83914
aI97084
aI25735
aI47514
aI91139
aI88138
aI36860
aI64771
aI57535
aI152300
aI47378
aI35133
aI79860
aa(lp2020
I116299
aI195570
aI213211
aI67944
aI168524
aI319752
aI126933
aI186011
aI284151
aI212527
aI89576
aI161890
aI132377
aI220221
aI143949
aI105547
aI242899
aI174291
aI177003
aI191468
aI125197
aI103154
aI43343
aI171249
aI202125
aI189720
aI148978
aI300088
aI109300
aI109263
aa(lp2021
I290269
aI556978
aI396705
aI423726
aI265393
aI388061
aI182777
aI207509
aI292452
aI480731
aI458665
aI296365
aI390407
aI566898
aI217866
aI468405
aI301449
aI317837
aI236589
aI433059
aI359526
aI224329
aI246084
aI234143
aI247624
aI299630
aI222333
aI237632
aI342087
aI378086
aa(lp2022
I562677
aI675555
aI505016
aI598015
aI406988
aI582360
aI611174
aI550187
aI452544
aI595513
aI499903
aI671272
aI499130
aI610091
aI479652
aI491047
aI530330
aI591193
aI548212
aI612936
aI358449
aI599527
aI619695
aI651553
aI395643
aI570663
aI525195
aI543199
aI589473
aI612135
aa(lp2023
I91008
aI148431
aI259303
aI388489
aI513702
aI653590
a(lp2024
I91008
aI148717
aI465339
aI600729
aI747413
aI810960
atp2025
.