(cigraph
Graph
p0
(I1000
(lp1
(I0
I1
tp2
a(I1
I2
tp3
a(I2
I3
tp4
a(I3
I4
tp5
a(I4
I5
tp6
a(I5
I6
tp7
a(I6
I17
tp8
a(I7
I8
tp9
a(I8
I9
tp10
a(I9
I972
tp11
a(I10
I11
tp12
a(I11
I12
tp13
a(I12
I13
tp14
a(I13
I14
tp15
a(I14
I15
tp16
a(I15
I16
tp17
a(I16
I214
tp18
a(I17
I18
tp19
a(I18
I19
tp20
a(I19
I700
tp21
a(I20
I21
tp22
a(I21
I22
tp23
a(I22
I660
tp24
a(I23
I24
tp25
a(I24
I25
tp26
a(I25
I26
tp27
a(I26
I27
tp28
a(I27
I28
tp29
a(I28
I29
tp30
a(I29
I30
tp31
a(I30
I31
tp32
a(I31
I329
tp33
a(I32
I33
tp34
a(I33
I34
tp35
a(I34
I35
tp36
a(I35
I36
tp37
a(I36
I37
tp38
a(I37
I38
tp39
a(I38
I39
tp40
a(I39
I40
tp41
a(I40
I41
tp42
a(I41
I42
tp43
a(I42
I43
tp44
a(I43
I44
tp45
a(I44
I45
tp46
a(I45
I46
tp47
a(I46
I518
tp48
a(I48
I880
tp49
a(I48
I49
tp50
a(I49
I50
tp51
a(I50
I51
tp52
a(I52
I126
tp53
a(I52
I53
tp54
a(I53
I54
tp55
a(I54
I55
tp56
a(I55
I56
tp57
a(I56
I57
tp58
a(I57
I58
tp59
a(I58
I59
tp60
a(I59
I60
tp61
a(I60
I61
tp62
a(I61
I62
tp63
a(I62
I63
tp64
a(I63
I64
tp65
a(I64
I65
tp66
a(I65
I66
tp67
a(I66
I67
tp68
a(I68
I965
tp69
a(I68
I69
tp70
a(I69
I70
tp71
a(I70
I71
tp72
a(I71
I72
tp73
a(I72
I73
tp74
a(I73
I74
tp75
a(I74
I75
tp76
a(I76
I791
tp77
a(I76
I77
tp78
a(I77
I78
tp79
a(I78
I79
tp80
a(I79
I80
tp81
a(I80
I81
tp82
a(I81
I82
tp83
a(I82
I83
tp84
a(I83
I84
tp85
a(I84
I85
tp86
a(I86
I115
tp87
a(I86
I87
tp88
a(I87
I88
tp89
a(I88
I89
tp90
a(I89
I90
tp91
a(I90
I91
tp92
a(I91
I92
tp93
a(I92
I93
tp94
a(I93
I94
tp95
a(I94
I95
tp96
a(I95
I96
tp97
a(I96
I97
tp98
a(I97
I98
tp99
a(I98
I99
tp100
a(I99
I100
tp101
a(I100
I101
tp102
a(I101
I102
tp103
a(I102
I103
tp104
a(I103
I104
tp105
a(I104
I105
tp106
a(I105
I106
tp107
a(I106
I107
tp108
a(I107
I108
tp109
a(I108
I140
tp110
a(I109
I357
tp111
a(I111
I278
tp112
a(I111
I112
tp113
a(I112
I705
tp114
a(I113
I114
tp115
a(I114
I115
tp116
a(I115
I116
tp117
a(I116
I117
tp118
a(I117
I118
tp119
a(I118
I119
tp120
a(I119
I120
tp121
a(I120
I121
tp122
a(I121
I122
tp123
a(I122
I123
tp124
a(I123
I124
tp125
a(I14
I125
tp126
a(I125
I126
tp127
a(I126
I127
tp128
a(I127
I128
tp129
a(I128
I129
tp130
a(I129
I545
tp131
a(I678
I681
tp132
a(I131
I132
tp133
a(I132
I133
tp134
a(I134
I173
tp135
a(I134
I135
tp136
a(I136
I850
tp137
a(I136
I137
tp138
a(I137
I138
tp139
a(I139
I793
tp140
a(I139
I140
tp141
a(I140
I141
tp142
a(I141
I142
tp143
a(I142
I143
tp144
a(I143
I144
tp145
a(I144
I145
tp146
a(I145
I146
tp147
a(I147
I649
tp148
a(I147
I148
tp149
a(I149
I798
tp150
a(I149
I150
tp151
a(I150
I151
tp152
a(I151
I867
tp153
a(I152
I558
tp154
a(I154
I563
tp155
a(I154
I465
tp156
a(I155
I156
tp157
a(I157
I876
tp158
a(I158
I302
tp159
a(I158
I159
tp160
a(I159
I160
tp161
a(I160
I161
tp162
a(I161
I162
tp163
a(I162
I163
tp164
a(I163
I164
tp165
a(I164
I165
tp166
a(I188
I764
tp167
a(I167
I979
tp168
a(I96
I167
tp169
a(I168
I169
tp170
a(I169
I170
tp171
a(I170
I402
tp172
a(I64
I171
tp173
a(I172
I173
tp174
a(I173
I174
tp175
a(I174
I175
tp176
a(I175
I176
tp177
a(I176
I177
tp178
a(I177
I178
tp179
a(I178
I179
tp180
a(I179
I180
tp181
a(I180
I181
tp182
a(I181
I182
tp183
a(I182
I355
tp184
a(I183
I184
tp185
a(I184
I185
tp186
a(I185
I186
tp187
a(I186
I187
tp188
a(I187
I188
tp189
a(I188
I189
tp190
a(I189
I190
tp191
a(I191
I799
tp192
a(I66
I191
tp193
a(I192
I193
tp194
a(I194
I562
tp195
a(I195
I289
tp196
a(I195
I196
tp197
a(I196
I197
tp198
a(I197
I198
tp199
a(I198
I199
tp200
a(I199
I200
tp201
a(I200
I201
tp202
a(I201
I202
tp203
a(I202
I203
tp204
a(I455
I542
tp205
a(I204
I205
tp206
a(I205
I810
tp207
a(I206
I207
tp208
a(I208
I727
tp209
a(I208
I298
tp210
a(I209
I210
tp211
a(I210
I211
tp212
a(I211
I212
tp213
a(I212
I213
tp214
a(I213
I214
tp215
a(I214
I215
tp216
a(I215
I216
tp217
a(I216
I217
tp218
a(I217
I218
tp219
a(I19
I364
tp220
a(I219
I220
tp221
a(I220
I221
tp222
a(I221
I222
tp223
a(I222
I223
tp224
a(I223
I224
tp225
a(I224
I225
tp226
a(I225
I226
tp227
a(I226
I227
tp228
a(I227
I228
tp229
a(I228
I229
tp230
a(I229
I230
tp231
a(I230
I231
tp232
a(I231
I232
tp233
a(I232
I233
tp234
a(I233
I234
tp235
a(I234
I235
tp236
a(I235
I236
tp237
a(I236
I237
tp238
a(I237
I238
tp239
a(I238
I239
tp240
a(I239
I853
tp241
a(I240
I241
tp242
a(I241
I242
tp243
a(I242
I243
tp244
a(I243
I244
tp245
a(I244
I245
tp246
a(I245
I246
tp247
a(I246
I329
tp248
a(I247
I248
tp249
a(I248
I249
tp250
a(I249
I250
tp251
a(I250
I251
tp252
a(I251
I252
tp253
a(I244
I252
tp254
a(I253
I254
tp255
a(I254
I255
tp256
a(I255
I256
tp257
a(I256
I257
tp258
a(I258
I597
tp259
a(I259
I796
tp260
a(I259
I260
tp261
a(I260
I261
tp262
a(I261
I262
tp263
a(I262
I263
tp264
a(I263
I264
tp265
a(I264
I265
tp266
a(I265
I266
tp267
a(I266
I267
tp268
a(I267
I268
tp269
a(I268
I269
tp270
a(I269
I270
tp271
a(I270
I271
tp272
a(I197
I272
tp273
a(I272
I273
tp274
a(I273
I274
tp275
a(I274
I275
tp276
a(I275
I276
tp277
a(I276
I277
tp278
a(I277
I278
tp279
a(I278
I279
tp280
a(I279
I280
tp281
a(I280
I281
tp282
a(I281
I282
tp283
a(I282
I283
tp284
a(I283
I284
tp285
a(I284
I285
tp286
a(I285
I286
tp287
a(I286
I287
tp288
a(I287
I288
tp289
a(I288
I289
tp290
a(I290
I903
tp291
a(I290
I291
tp292
a(I291
I292
tp293
a(I292
I293
tp294
a(I293
I294
tp295
a(I294
I295
tp296
a(I295
I296
tp297
a(I296
I297
tp298
a(I297
I298
tp299
a(I298
I299
tp300
a(I299
I300
tp301
a(I300
I301
tp302
a(I301
I302
tp303
a(I302
I303
tp304
a(I303
I304
tp305
a(I304
I305
tp306
a(I305
I306
tp307
a(I306
I307
tp308
a(I307
I308
tp309
a(I308
I309
tp310
a(I141
I309
tp311
a(I310
I311
tp312
a(I311
I312
tp313
a(I275
I312
tp314
a(I313
I314
tp315
a(I314
I315
tp316
a(I315
I316
tp317
a(I482
I594
tp318
a(I317
I318
tp319
a(I303
I318
tp320
a(I116
I319
tp321
a(I320
I321
tp322
a(I321
I322
tp323
a(I322
I323
tp324
a(I138
I324
tp325
a(I324
I325
tp326
a(I325
I326
tp327
a(I326
I327
tp328
a(I327
I328
tp329
a(I329
I479
tp330
a(I329
I330
tp331
a(I330
I331
tp332
a(I331
I332
tp333
a(I332
I333
tp334
a(I333
I334
tp335
a(I334
I335
tp336
a(I335
I336
tp337
a(I336
I337
tp338
a(I337
I338
tp339
a(I339
I725
tp340
a(I339
I340
tp341
a(I340
I834
tp342
a(I341
I342
tp343
a(I342
I343
tp344
a(I343
I344
tp345
a(I344
I345
tp346
a(I345
I346
tp347
a(I346
I347
tp348
a(I347
I348
tp349
a(I348
I349
tp350
a(I349
I350
tp351
a(I350
I351
tp352
a(I351
I352
tp353
a(I352
I353
tp354
a(I353
I354
tp355
a(I354
I355
tp356
a(I355
I356
tp357
a(I356
I357
tp358
a(I357
I358
tp359
a(I358
I359
tp360
a(I359
I360
tp361
a(I360
I361
tp362
a(I361
I362
tp363
a(I363
I755
tp364
a(I363
I364
tp365
a(I364
I365
tp366
a(I365
I366
tp367
a(I108
I367
tp368
a(I368
I687
tp369
a(I368
I369
tp370
a(I369
I370
tp371
a(I370
I371
tp372
a(I371
I372
tp373
a(I372
I373
tp374
a(I167
I374
tp375
a(I374
I375
tp376
a(I375
I376
tp377
a(I376
I377
tp378
a(I377
I378
tp379
a(I378
I379
tp380
a(I195
I380
tp381
a(I380
I381
tp382
a(I381
I382
tp383
a(I382
I383
tp384
a(I383
I384
tp385
a(I384
I385
tp386
a(I386
I469
tp387
a(I386
I493
tp388
a(I387
I388
tp389
a(I388
I389
tp390
a(I389
I390
tp391
a(I390
I391
tp392
a(I391
I392
tp393
a(I392
I393
tp394
a(I393
I394
tp395
a(I394
I395
tp396
a(I395
I396
tp397
a(I396
I397
tp398
a(I397
I398
tp399
a(I398
I399
tp400
a(I377
I750
tp401
a(I400
I401
tp402
a(I401
I402
tp403
a(I402
I403
tp404
a(I403
I404
tp405
a(I404
I405
tp406
a(I405
I406
tp407
a(I406
I407
tp408
a(I407
I408
tp409
a(I408
I409
tp410
a(I409
I410
tp411
a(I410
I411
tp412
a(I411
I412
tp413
a(I412
I479
tp414
a(I413
I414
tp415
a(I414
I415
tp416
a(I415
I416
tp417
a(I416
I417
tp418
a(I418
I932
tp419
a(I418
I419
tp420
a(I256
I420
tp421
a(I420
I421
tp422
a(I421
I422
tp423
a(I423
I858
tp424
a(I423
I424
tp425
a(I424
I425
tp426
a(I425
I426
tp427
a(I131
I427
tp428
a(I427
I428
tp429
a(I428
I429
tp430
a(I430
I725
tp431
a(I430
I431
tp432
a(I431
I432
tp433
a(I432
I433
tp434
a(I433
I434
tp435
a(I434
I435
tp436
a(I435
I436
tp437
a(I436
I437
tp438
a(I437
I438
tp439
a(I14
I438
tp440
a(I439
I440
tp441
a(I440
I441
tp442
a(I441
I442
tp443
a(I442
I443
tp444
a(I214
I444
tp445
a(I444
I445
tp446
a(I445
I446
tp447
a(I446
I447
tp448
a(I448
I720
tp449
a(I448
I449
tp450
a(I449
I450
tp451
a(I450
I451
tp452
a(I451
I452
tp453
a(I453
I700
tp454
a(I453
I454
tp455
a(I454
I455
tp456
a(I455
I545
tp457
a(I456
I457
tp458
a(I457
I458
tp459
a(I458
I459
tp460
a(I459
I460
tp461
a(I83
I460
tp462
a(I461
I462
tp463
a(I462
I463
tp464
a(I463
I464
tp465
a(I464
I465
tp466
a(I465
I466
tp467
a(I466
I467
tp468
a(I467
I468
tp469
a(I468
I469
tp470
a(I469
I470
tp471
a(I470
I471
tp472
a(I471
I472
tp473
a(I472
I473
tp474
a(I474
I825
tp475
a(I474
I475
tp476
a(I41
I476
tp477
a(I386
I476
tp478
a(I477
I826
tp479
a(I478
I479
tp480
a(I479
I480
tp481
a(I480
I481
tp482
a(I481
I482
tp483
a(I482
I483
tp484
a(I483
I484
tp485
a(I484
I485
tp486
a(I485
I486
tp487
a(I486
I487
tp488
a(I68
I488
tp489
a(I488
I489
tp490
a(I489
I490
tp491
a(I490
I491
tp492
a(I491
I492
tp493
a(I492
I493
tp494
a(I340
I493
tp495
a(I494
I495
tp496
a(I495
I496
tp497
a(I496
I497
tp498
a(I497
I498
tp499
a(I498
I499
tp500
a(I499
I500
tp501
a(I500
I501
tp502
a(I501
I502
tp503
a(I502
I503
tp504
a(I503
I504
tp505
a(I504
I505
tp506
a(I505
I506
tp507
a(I506
I507
tp508
a(I507
I508
tp509
a(I508
I509
tp510
a(I509
I510
tp511
a(I510
I511
tp512
a(I512
I661
tp513
a(I512
I513
tp514
a(I95
I514
tp515
a(I514
I515
tp516
a(I515
I516
tp517
a(I516
I517
tp518
a(I256
I517
tp519
a(I518
I519
tp520
a(I519
I520
tp521
a(I520
I521
tp522
a(I521
I522
tp523
a(I522
I523
tp524
a(I523
I524
tp525
a(I525
I889
tp526
a(I525
I526
tp527
a(I526
I527
tp528
a(I527
I528
tp529
a(I528
I529
tp530
a(I529
I530
tp531
a(I530
I531
tp532
a(I531
I532
tp533
a(I533
I750
tp534
a(I533
I534
tp535
a(I534
I535
tp536
a(I535
I536
tp537
a(I536
I537
tp538
a(I537
I538
tp539
a(I538
I767
tp540
a(I539
I540
tp541
a(I540
I541
tp542
a(I541
I542
tp543
a(I542
I543
tp544
a(I543
I544
tp545
a(I545
I783
tp546
a(I545
I546
tp547
a(I109
I547
tp548
a(I548
I698
tp549
a(I548
I549
tp550
a(I186
I829
tp551
a(I550
I692
tp552
a(I99
I551
tp553
a(I552
I553
tp554
a(I553
I554
tp555
a(I554
I555
tp556
a(I555
I556
tp557
a(I556
I557
tp558
a(I558
I808
tp559
a(I558
I559
tp560
a(I559
I560
tp561
a(I560
I561
tp562
a(I561
I562
tp563
a(I563
I919
tp564
a(I563
I564
tp565
a(I564
I565
tp566
a(I565
I566
tp567
a(I566
I567
tp568
a(I567
I568
tp569
a(I568
I569
tp570
a(I569
I570
tp571
a(I570
I571
tp572
a(I571
I572
tp573
a(I572
I573
tp574
a(I573
I574
tp575
a(I574
I575
tp576
a(I575
I576
tp577
a(I576
I577
tp578
a(I577
I578
tp579
a(I578
I579
tp580
a(I109
I579
tp581
a(I580
I581
tp582
a(I581
I582
tp583
a(I582
I583
tp584
a(I313
I583
tp585
a(I584
I585
tp586
a(I322
I585
tp587
a(I586
I587
tp588
a(I588
I971
tp589
a(I588
I589
tp590
a(I589
I590
tp591
a(I590
I591
tp592
a(I591
I735
tp593
a(I592
I593
tp594
a(I593
I594
tp595
a(I595
I740
tp596
a(I102
I595
tp597
a(I596
I597
tp598
a(I597
I598
tp599
a(I198
I599
tp600
a(I599
I600
tp601
a(I600
I601
tp602
a(I601
I602
tp603
a(I180
I603
tp604
a(I603
I604
tp605
a(I604
I605
tp606
a(I327
I606
tp607
a(I606
I659
tp608
a(I607
I918
tp609
a(I608
I609
tp610
a(I609
I610
tp611
a(I611
I671
tp612
a(I611
I612
tp613
a(I612
I613
tp614
a(I613
I614
tp615
a(I614
I615
tp616
a(I615
I616
tp617
a(I616
I617
tp618
a(I617
I618
tp619
a(I618
I619
tp620
a(I619
I620
tp621
a(I620
I621
tp622
a(I621
I622
tp623
a(I622
I623
tp624
a(I355
I624
tp625
a(I624
I625
tp626
a(I625
I626
tp627
a(I626
I627
tp628
a(I627
I628
tp629
a(I628
I629
tp630
a(I629
I630
tp631
a(I630
I631
tp632
a(I631
I632
tp633
a(I632
I633
tp634
a(I633
I634
tp635
a(I634
I635
tp636
a(I635
I636
tp637
a(I636
I637
tp638
a(I637
I638
tp639
a(I638
I639
tp640
a(I640
I759
tp641
a(I640
I641
tp642
a(I641
I642
tp643
a(I642
I643
tp644
a(I643
I644
tp645
a(I644
I645
tp646
a(I623
I646
tp647
a(I646
I647
tp648
a(I647
I648
tp649
a(I648
I649
tp650
a(I649
I650
tp651
a(I650
I651
tp652
a(I651
I652
tp653
a(I17
I652
tp654
a(I653
I926
tp655
a(I654
I655
tp656
a(I655
I656
tp657
a(I656
I657
tp658
a(I657
I658
tp659
a(I658
I659
tp660
a(I659
I660
tp661
a(I660
I661
tp662
a(I661
I662
tp663
a(I662
I663
tp664
a(I663
I664
tp665
a(I664
I665
tp666
a(I665
I666
tp667
a(I666
I667
tp668
a(I667
I668
tp669
a(I668
I669
tp670
a(I669
I670
tp671
a(I670
I671
tp672
a(I671
I672
tp673
a(I673
I762
tp674
a(I673
I674
tp675
a(I674
I675
tp676
a(I675
I676
tp677
a(I487
I737
tp678
a(I677
I678
tp679
a(I308
I678
tp680
a(I679
I680
tp681
a(I680
I681
tp682
a(I681
I682
tp683
a(I682
I683
tp684
a(I683
I684
tp685
a(I481
I684
tp686
a(I685
I686
tp687
a(I686
I687
tp688
a(I687
I688
tp689
a(I689
I770
tp690
a(I689
I690
tp691
a(I384
I690
tp692
a(I691
I692
tp693
a(I692
I693
tp694
a(I67
I694
tp695
a(I694
I695
tp696
a(I695
I696
tp697
a(I696
I697
tp698
a(I642
I697
tp699
a(I698
I699
tp700
a(I699
I700
tp701
a(I700
I701
tp702
a(I462
I701
tp703
a(I702
I703
tp704
a(I703
I704
tp705
a(I704
I705
tp706
a(I705
I706
tp707
a(I706
I707
tp708
a(I707
I708
tp709
a(I708
I709
tp710
a(I253
I709
tp711
a(I710
I711
tp712
a(I711
I712
tp713
a(I563
I712
tp714
a(I713
I714
tp715
a(I714
I715
tp716
a(I715
I716
tp717
a(I716
I717
tp718
a(I717
I718
tp719
a(I719
I806
tp720
a(I719
I720
tp721
a(I721
I987
tp722
a(I721
I722
tp723
a(I722
I723
tp724
a(I723
I724
tp725
a(I724
I725
tp726
a(I725
I726
tp727
a(I726
I727
tp728
a(I727
I728
tp729
a(I728
I729
tp730
a(I729
I939
tp731
a(I730
I731
tp732
a(I731
I732
tp733
a(I732
I733
tp734
a(I733
I734
tp735
a(I734
I735
tp736
a(I735
I736
tp737
a(I736
I737
tp738
a(I737
I738
tp739
a(I738
I739
tp740
a(I739
I740
tp741
a(I740
I741
tp742
a(I741
I742
tp743
a(I742
I743
tp744
a(I743
I744
tp745
a(I744
I745
tp746
a(I745
I746
tp747
a(I154
I747
tp748
a(I747
I748
tp749
a(I134
I748
tp750
a(I750
I766
tp751
a(I750
I751
tp752
a(I751
I752
tp753
a(I752
I753
tp754
a(I753
I754
tp755
a(I754
I755
tp756
a(I755
I756
tp757
a(I756
I757
tp758
a(I757
I758
tp759
a(I758
I759
tp760
a(I60
I759
tp761
a(I760
I761
tp762
a(I761
I762
tp763
a(I683
I762
tp764
a(I763
I764
tp765
a(I454
I764
tp766
a(I765
I766
tp767
a(I766
I767
tp768
a(I490
I768
tp769
a(I488
I768
tp770
a(I769
I770
tp771
a(I770
I771
tp772
a(I771
I772
tp773
a(I772
I773
tp774
a(I773
I774
tp775
a(I774
I775
tp776
a(I775
I776
tp777
a(I776
I777
tp778
a(I777
I778
tp779
a(I778
I779
tp780
a(I779
I780
tp781
a(I780
I781
tp782
a(I423
I781
tp783
a(I782
I783
tp784
a(I103
I783
tp785
a(I784
I785
tp786
a(I785
I786
tp787
a(I786
I787
tp788
a(I787
I788
tp789
a(I788
I789
tp790
a(I789
I790
tp791
a(I150
I550
tp792
a(I791
I792
tp793
a(I792
I793
tp794
a(I793
I794
tp795
a(I198
I894
tp796
a(I795
I796
tp797
a(I796
I797
tp798
a(I797
I798
tp799
a(I798
I799
tp800
a(I799
I800
tp801
a(I800
I801
tp802
a(I38
I802
tp803
a(I802
I803
tp804
a(I803
I804
tp805
a(I804
I805
tp806
a(I776
I806
tp807
a(I806
I807
tp808
a(I807
I808
tp809
a(I808
I809
tp810
a(I809
I810
tp811
a(I810
I811
tp812
a(I811
I812
tp813
a(I813
I940
tp814
a(I813
I814
tp815
a(I814
I815
tp816
a(I263
I816
tp817
a(I816
I817
tp818
a(I817
I818
tp819
a(I818
I819
tp820
a(I819
I820
tp821
a(I90
I820
tp822
a(I172
I821
tp823
a(I822
I980
tp824
a(I823
I824
tp825
a(I622
I825
tp826
a(I826
I987
tp827
a(I826
I827
tp828
a(I827
I828
tp829
a(I828
I829
tp830
a(I829
I874
tp831
a(I830
I831
tp832
a(I831
I832
tp833
a(I200
I832
tp834
a(I833
I834
tp835
a(I834
I835
tp836
a(I835
I836
tp837
a(I836
I837
tp838
a(I837
I838
tp839
a(I838
I839
tp840
a(I313
I840
tp841
a(I840
I841
tp842
a(I841
I842
tp843
a(I842
I843
tp844
a(I843
I844
tp845
a(I844
I845
tp846
a(I845
I846
tp847
a(I846
I847
tp848
a(I847
I848
tp849
a(I160
I581
tp850
a(I849
I850
tp851
a(I850
I851
tp852
a(I355
I852
tp853
a(I852
I853
tp854
a(I853
I854
tp855
a(I854
I855
tp856
a(I855
I856
tp857
a(I856
I857
tp858
a(I857
I858
tp859
a(I834
I858
tp860
a(I859
I860
tp861
a(I860
I861
tp862
a(I861
I862
tp863
a(I862
I863
tp864
a(I863
I864
tp865
a(I864
I865
tp866
a(I118
I865
tp867
a(I866
I867
tp868
a(I867
I868
tp869
a(I298
I868
tp870
a(I869
I870
tp871
a(I870
I871
tp872
a(I871
I872
tp873
a(I872
I873
tp874
a(I873
I874
tp875
a(I874
I875
tp876
a(I875
I876
tp877
a(I876
I877
tp878
a(I877
I878
tp879
a(I878
I879
tp880
a(I879
I880
tp881
a(I767
I881
tp882
a(I881
I882
tp883
a(I882
I883
tp884
a(I883
I884
tp885
a(I351
I885
tp886
a(I885
I886
tp887
a(I667
I886
tp888
a(I887
I888
tp889
a(I888
I889
tp890
a(I61
I889
tp891
a(I890
I891
tp892
a(I891
I892
tp893
a(I892
I893
tp894
a(I679
I894
tp895
a(I894
I895
tp896
a(I105
I895
tp897
a(I896
I897
tp898
a(I127
I897
tp899
a(I898
I899
tp900
a(I899
I900
tp901
a(I900
I901
tp902
a(I430
I902
tp903
a(I902
I903
tp904
a(I281
I903
tp905
a(I904
I905
tp906
a(I905
I906
tp907
a(I906
I907
tp908
a(I907
I908
tp909
a(I908
I909
tp910
a(I909
I910
tp911
a(I910
I911
tp912
a(I911
I912
tp913
a(I912
I913
tp914
a(I415
I913
tp915
a(I914
I915
tp916
a(I915
I916
tp917
a(I916
I917
tp918
a(I917
I918
tp919
a(I918
I919
tp920
a(I919
I920
tp921
a(I920
I921
tp922
a(I626
I921
tp923
a(I922
I923
tp924
a(I923
I924
tp925
a(I924
I925
tp926
a(I925
I926
tp927
a(I376
I927
tp928
a(I927
I928
tp929
a(I928
I929
tp930
a(I929
I930
tp931
a(I6
I931
tp932
a(I931
I932
tp933
a(I932
I933
tp934
a(I933
I934
tp935
a(I934
I935
tp936
a(I935
I936
tp937
a(I936
I937
tp938
a(I937
I938
tp939
a(I938
I939
tp940
a(I939
I940
tp941
a(I588
I941
tp942
a(I941
I942
tp943
a(I942
I943
tp944
a(I943
I944
tp945
a(I944
I945
tp946
a(I543
I946
tp947
a(I946
I998
tp948
a(I947
I948
tp949
a(I948
I949
tp950
a(I949
I950
tp951
a(I950
I951
tp952
a(I951
I952
tp953
a(I952
I953
tp954
a(I953
I954
tp955
a(I954
I955
tp956
a(I955
I956
tp957
a(I956
I957
tp958
a(I957
I958
tp959
a(I958
I959
tp960
a(I662
I960
tp961
a(I323
I960
tp962
a(I961
I962
tp963
a(I962
I963
tp964
a(I963
I964
tp965
a(I964
I965
tp966
a(I965
I966
tp967
a(I966
I967
tp968
a(I967
I968
tp969
a(I968
I969
tp970
a(I589
I970
tp971
a(I970
I971
tp972
a(I971
I972
tp973
a(I972
I973
tp974
a(I973
I974
tp975
a(I974
I975
tp976
a(I975
I976
tp977
a(I428
I977
tp978
a(I977
I978
tp979
a(I978
I979
tp980
a(I979
I980
tp981
a(I894
I981
tp982
a(I981
I982
tp983
a(I982
I983
tp984
a(I573
I983
tp985
a(I984
I985
tp986
a(I985
I986
tp987
a(I986
I987
tp988
a(I987
I988
tp989
a(I988
I989
tp990
a(I989
I990
tp991
a(I990
I991
tp992
a(I991
I992
tp993
a(I992
I993
tp994
a(I993
I994
tp995
a(I994
I995
tp996
a(I995
I996
tp997
a(I996
I997
tp998
a(I997
I998
tp999
a(I998
I999
tp1000
a(I0
I999
tp1001
a(I0
I2
tp1002
a(I0
I998
tp1003
a(I1
I999
tp1004
a(I1
I3
tp1005
a(I2
I4
tp1006
a(I3
I5
tp1007
a(I6
I446
tp1008
a(I5
I7
tp1009
a(I8
I867
tp1010
a(I7
I9
tp1011
a(I8
I10
tp1012
a(I9
I11
tp1013
a(I10
I12
tp1014
a(I11
I13
tp1015
a(I12
I972
tp1016
a(I13
I15
tp1017
a(I14
I16
tp1018
a(I15
I17
tp1019
a(I16
I18
tp1020
a(I17
I19
tp1021
a(I18
I20
tp1022
a(I19
I21
tp1023
a(I20
I987
tp1024
a(I21
I23
tp1025
a(I22
I24
tp1026
a(I23
I25
tp1027
a(I24
I26
tp1028
a(I25
I27
tp1029
a(I26
I28
tp1030
a(I27
I29
tp1031
a(I28
I30
tp1032
a(I29
I31
tp1033
a(I30
I32
tp1034
a(I31
I33
tp1035
a(I32
I34
tp1036
a(I35
I681
tp1037
a(I713
I851
tp1038
a(I35
I37
tp1039
a(I36
I38
tp1040
a(I37
I39
tp1041
a(I38
I40
tp1042
a(I39
I700
tp1043
a(I40
I355
tp1044
a(I41
I43
tp1045
a(I44
I490
tp1046
a(I43
I45
tp1047
a(I666
I997
tp1048
a(I45
I47
tp1049
a(I46
I48
tp1050
a(I47
I49
tp1051
a(I48
I50
tp1052
a(I49
I51
tp1053
a(I50
I52
tp1054
a(I51
I53
tp1055
a(I52
I54
tp1056
a(I53
I892
tp1057
a(I54
I56
tp1058
a(I55
I57
tp1059
a(I56
I58
tp1060
a(I57
I281
tp1061
a(I58
I60
tp1062
a(I59
I61
tp1063
a(I62
I515
tp1064
a(I61
I63
tp1065
a(I62
I64
tp1066
a(I63
I65
tp1067
a(I64
I66
tp1068
a(I65
I207
tp1069
a(I66
I68
tp1070
a(I67
I506
tp1071
a(I68
I70
tp1072
a(I71
I613
tp1073
a(I70
I72
tp1074
a(I73
I334
tp1075
a(I72
I74
tp1076
a(I73
I75
tp1077
a(I74
I76
tp1078
a(I75
I77
tp1079
a(I76
I78
tp1080
a(I79
I134
tp1081
a(I78
I80
tp1082
a(I79
I81
tp1083
a(I80
I82
tp1084
a(I81
I925
tp1085
a(I82
I84
tp1086
a(I85
I918
tp1087
a(I84
I86
tp1088
a(I85
I87
tp1089
a(I86
I88
tp1090
a(I87
I89
tp1091
a(I88
I90
tp1092
a(I89
I91
tp1093
a(I90
I92
tp1094
a(I16
I93
tp1095
a(I92
I94
tp1096
a(I93
I95
tp1097
a(I94
I96
tp1098
a(I95
I97
tp1099
a(I96
I98
tp1100
a(I97
I99
tp1101
a(I98
I100
tp1102
a(I99
I101
tp1103
a(I100
I102
tp1104
a(I101
I103
tp1105
a(I104
I547
tp1106
a(I105
I333
tp1107
a(I104
I128
tp1108
a(I105
I107
tp1109
a(I106
I108
tp1110
a(I107
I109
tp1111
a(I108
I110
tp1112
a(I109
I111
tp1113
a(I110
I112
tp1114
a(I111
I113
tp1115
a(I112
I114
tp1116
a(I113
I115
tp1117
a(I114
I116
tp1118
a(I117
I734
tp1119
a(I116
I118
tp1120
a(I117
I119
tp1121
a(I118
I120
tp1122
a(I119
I127
tp1123
a(I120
I122
tp1124
a(I121
I931
tp1125
a(I122
I124
tp1126
a(I123
I206
tp1127
a(I124
I126
tp1128
a(I125
I605
tp1129
a(I43
I128
tp1130
a(I129
I728
tp1131
a(I128
I130
tp1132
a(I129
I506
tp1133
a(I130
I132
tp1134
a(I131
I133
tp1135
a(I132
I413
tp1136
a(I133
I135
tp1137
a(I134
I136
tp1138
a(I135
I137
tp1139
a(I136
I138
tp1140
a(I137
I139
tp1141
a(I138
I140
tp1142
a(I139
I141
tp1143
a(I140
I892
tp1144
a(I141
I143
tp1145
a(I142
I144
tp1146
a(I145
I793
tp1147
a(I144
I146
tp1148
a(I145
I147
tp1149
a(I146
I148
tp1150
a(I147
I149
tp1151
a(I148
I150
tp1152
a(I149
I151
tp1153
a(I150
I152
tp1154
a(I151
I153
tp1155
a(I152
I154
tp1156
a(I153
I155
tp1157
a(I154
I156
tp1158
a(I155
I157
tp1159
a(I156
I158
tp1160
a(I157
I159
tp1161
a(I158
I160
tp1162
a(I159
I879
tp1163
a(I160
I162
tp1164
a(I29
I161
tp1165
a(I162
I164
tp1166
a(I163
I165
tp1167
a(I164
I224
tp1168
a(I165
I167
tp1169
a(I166
I168
tp1170
a(I167
I169
tp1171
a(I168
I170
tp1172
a(I169
I171
tp1173
a(I8
I172
tp1174
a(I171
I173
tp1175
a(I172
I174
tp1176
a(I173
I175
tp1177
a(I174
I642
tp1178
a(I175
I177
tp1179
a(I178
I900
tp1180
a(I177
I179
tp1181
a(I178
I180
tp1182
a(I179
I181
tp1183
a(I180
I182
tp1184
a(I181
I183
tp1185
a(I182
I184
tp1186
a(I183
I185
tp1187
a(I186
I289
tp1188
a(I185
I187
tp1189
a(I186
I188
tp1190
a(I187
I189
tp1191
a(I188
I190
tp1192
a(I189
I191
tp1193
a(I190
I192
tp1194
a(I191
I969
tp1195
a(I192
I194
tp1196
a(I193
I195
tp1197
a(I107
I196
tp1198
a(I197
I459
tp1199
a(I196
I198
tp1200
a(I197
I199
tp1201
a(I198
I200
tp1202
a(I199
I201
tp1203
a(I200
I202
tp1204
a(I201
I203
tp1205
a(I204
I253
tp1206
a(I203
I205
tp1207
a(I206
I430
tp1208
a(I205
I207
tp1209
a(I206
I208
tp1210
a(I207
I209
tp1211
a(I208
I210
tp1212
a(I209
I211
tp1213
a(I210
I212
tp1214
a(I211
I436
tp1215
a(I212
I214
tp1216
a(I213
I215
tp1217
a(I214
I216
tp1218
a(I215
I217
tp1219
a(I216
I643
tp1220
a(I217
I219
tp1221
a(I218
I220
tp1222
a(I219
I221
tp1223
a(I220
I222
tp1224
a(I221
I223
tp1225
a(I222
I224
tp1226
a(I223
I225
tp1227
a(I226
I642
tp1228
a(I225
I227
tp1229
a(I226
I437
tp1230
a(I227
I229
tp1231
a(I228
I230
tp1232
a(I229
I231
tp1233
a(I230
I232
tp1234
a(I231
I233
tp1235
a(I232
I234
tp1236
a(I233
I235
tp1237
a(I234
I236
tp1238
a(I235
I237
tp1239
a(I236
I238
tp1240
a(I237
I239
tp1241
a(I238
I240
tp1242
a(I239
I241
tp1243
a(I240
I242
tp1244
a(I241
I243
tp1245
a(I242
I244
tp1246
a(I243
I245
tp1247
a(I244
I246
tp1248
a(I245
I247
tp1249
a(I246
I248
tp1250
a(I247
I249
tp1251
a(I248
I250
tp1252
a(I249
I251
tp1253
a(I252
I695
tp1254
a(I251
I253
tp1255
a(I254
I315
tp1256
a(I253
I255
tp1257
a(I256
I459
tp1258
a(I255
I257
tp1259
a(I256
I258
tp1260
a(I257
I259
tp1261
a(I258
I260
tp1262
a(I261
I349
tp1263
a(I260
I262
tp1264
a(I261
I263
tp1265
a(I262
I264
tp1266
a(I263
I265
tp1267
a(I104
I266
tp1268
a(I265
I267
tp1269
a(I266
I268
tp1270
a(I267
I269
tp1271
a(I268
I270
tp1272
a(I269
I271
tp1273
a(I270
I272
tp1274
a(I271
I273
tp1275
a(I71
I274
tp1276
a(I273
I275
tp1277
a(I274
I276
tp1278
a(I275
I277
tp1279
a(I276
I278
tp1280
a(I277
I279
tp1281
a(I278
I280
tp1282
a(I281
I681
tp1283
a(I280
I282
tp1284
a(I281
I283
tp1285
a(I282
I284
tp1286
a(I283
I285
tp1287
a(I284
I286
tp1288
a(I285
I287
tp1289
a(I286
I288
tp1290
a(I287
I289
tp1291
a(I288
I290
tp1292
a(I291
I807
tp1293
a(I290
I769
tp1294
a(I291
I293
tp1295
a(I292
I294
tp1296
a(I293
I295
tp1297
a(I15
I296
tp1298
a(I295
I297
tp1299
a(I296
I298
tp1300
a(I14
I299
tp1301
a(I186
I300
tp1302
a(I299
I301
tp1303
a(I268
I300
tp1304
a(I77
I301
tp1305
a(I302
I304
tp1306
a(I303
I305
tp1307
a(I304
I306
tp1308
a(I305
I307
tp1309
a(I306
I308
tp1310
a(I307
I309
tp1311
a(I308
I310
tp1312
a(I309
I311
tp1313
a(I310
I312
tp1314
a(I311
I313
tp1315
a(I312
I314
tp1316
a(I313
I315
tp1317
a(I314
I848
tp1318
a(I315
I317
tp1319
a(I316
I318
tp1320
a(I317
I319
tp1321
a(I318
I328
tp1322
a(I319
I321
tp1323
a(I320
I322
tp1324
a(I321
I323
tp1325
a(I322
I324
tp1326
a(I323
I325
tp1327
a(I324
I326
tp1328
a(I325
I967
tp1329
a(I326
I328
tp1330
a(I327
I329
tp1331
a(I328
I330
tp1332
a(I329
I331
tp1333
a(I330
I332
tp1334
a(I331
I333
tp1335
a(I332
I334
tp1336
a(I333
I335
tp1337
a(I245
I593
tp1338
a(I335
I337
tp1339
a(I223
I338
tp1340
a(I337
I339
tp1341
a(I338
I340
tp1342
a(I339
I341
tp1343
a(I340
I342
tp1344
a(I341
I343
tp1345
a(I211
I342
tp1346
a(I343
I345
tp1347
a(I346
I919
tp1348
a(I345
I347
tp1349
a(I346
I348
tp1350
a(I347
I349
tp1351
a(I348
I350
tp1352
a(I349
I976
tp1353
a(I162
I350
tp1354
a(I351
I353
tp1355
a(I352
I817
tp1356
a(I353
I355
tp1357
a(I354
I356
tp1358
a(I355
I357
tp1359
a(I356
I358
tp1360
a(I357
I359
tp1361
a(I337
I358
tp1362
a(I359
I361
tp1363
a(I360
I362
tp1364
a(I361
I363
tp1365
a(I362
I364
tp1366
a(I363
I365
tp1367
a(I364
I366
tp1368
a(I365
I367
tp1369
a(I366
I368
tp1370
a(I367
I369
tp1371
a(I368
I370
tp1372
a(I369
I371
tp1373
a(I632
I891
tp1374
a(I371
I373
tp1375
a(I372
I374
tp1376
a(I373
I943
tp1377
a(I374
I376
tp1378
a(I375
I723
tp1379
a(I378
I973
tp1380
a(I377
I379
tp1381
a(I378
I380
tp1382
a(I379
I381
tp1383
a(I380
I382
tp1384
a(I381
I383
tp1385
a(I382
I384
tp1386
a(I385
I449
tp1387
a(I384
I386
tp1388
a(I351
I385
tp1389
a(I386
I388
tp1390
a(I387
I389
tp1391
a(I388
I390
tp1392
a(I389
I813
tp1393
a(I390
I392
tp1394
a(I391
I393
tp1395
a(I392
I394
tp1396
a(I393
I821
tp1397
a(I394
I396
tp1398
a(I397
I560
tp1399
a(I396
I398
tp1400
a(I397
I872
tp1401
a(I400
I757
tp1402
a(I399
I401
tp1403
a(I400
I832
tp1404
a(I401
I403
tp1405
a(I404
I720
tp1406
a(I405
I875
tp1407
a(I404
I483
tp1408
a(I405
I407
tp1409
a(I406
I408
tp1410
a(I407
I409
tp1411
a(I408
I410
tp1412
a(I409
I411
tp1413
a(I410
I412
tp1414
a(I411
I413
tp1415
a(I412
I414
tp1416
a(I178
I413
tp1417
a(I414
I695
tp1418
a(I415
I417
tp1419
a(I416
I418
tp1420
a(I417
I419
tp1421
a(I418
I420
tp1422
a(I419
I421
tp1423
a(I420
I422
tp1424
a(I421
I423
tp1425
a(I422
I424
tp1426
a(I423
I425
tp1427
a(I424
I426
tp1428
a(I425
I996
tp1429
a(I426
I428
tp1430
a(I427
I429
tp1431
a(I428
I430
tp1432
a(I429
I431
tp1433
a(I430
I432
tp1434
a(I431
I433
tp1435
a(I432
I434
tp1436
a(I433
I435
tp1437
a(I436
I600
tp1438
a(I435
I437
tp1439
a(I436
I438
tp1440
a(I437
I439
tp1441
a(I438
I440
tp1442
a(I439
I441
tp1443
a(I440
I751
tp1444
a(I441
I443
tp1445
a(I442
I893
tp1446
a(I443
I445
tp1447
a(I444
I446
tp1448
a(I445
I682
tp1449
a(I446
I448
tp1450
a(I447
I449
tp1451
a(I450
I743
tp1452
a(I449
I451
tp1453
a(I450
I452
tp1454
a(I453
I696
tp1455
a(I452
I454
tp1456
a(I453
I455
tp1457
a(I47
I454
tp1458
a(I455
I457
tp1459
a(I456
I458
tp1460
a(I457
I459
tp1461
a(I458
I460
tp1462
a(I459
I461
tp1463
a(I460
I462
tp1464
a(I461
I471
tp1465
a(I462
I464
tp1466
a(I463
I465
tp1467
a(I466
I646
tp1468
a(I465
I467
tp1469
a(I466
I468
tp1470
a(I467
I469
tp1471
a(I468
I470
tp1472
a(I485
I994
tp1473
a(I470
I472
tp1474
a(I471
I473
tp1475
a(I472
I474
tp1476
a(I473
I475
tp1477
a(I474
I476
tp1478
a(I29
I477
tp1479
a(I476
I478
tp1480
a(I477
I479
tp1481
a(I478
I480
tp1482
a(I481
I846
tp1483
a(I480
I482
tp1484
a(I481
I483
tp1485
a(I482
I484
tp1486
a(I483
I485
tp1487
a(I484
I486
tp1488
a(I485
I487
tp1489
a(I486
I488
tp1490
a(I487
I489
tp1491
a(I488
I490
tp1492
a(I489
I491
tp1493
a(I490
I492
tp1494
a(I491
I493
tp1495
a(I494
I685
tp1496
a(I493
I495
tp1497
a(I494
I496
tp1498
a(I495
I497
tp1499
a(I496
I498
tp1500
a(I497
I499
tp1501
a(I498
I500
tp1502
a(I359
I499
tp1503
a(I500
I502
tp1504
a(I501
I503
tp1505
a(I502
I504
tp1506
a(I503
I505
tp1507
a(I504
I506
tp1508
a(I505
I507
tp1509
a(I506
I758
tp1510
a(I507
I792
tp1511
a(I508
I510
tp1512
a(I509
I511
tp1513
a(I510
I512
tp1514
a(I511
I513
tp1515
a(I512
I514
tp1516
a(I513
I697
tp1517
a(I514
I516
tp1518
a(I515
I517
tp1519
a(I516
I518
tp1520
a(I517
I519
tp1521
a(I518
I520
tp1522
a(I519
I521
tp1523
a(I520
I522
tp1524
a(I521
I523
tp1525
a(I522
I524
tp1526
a(I523
I525
tp1527
a(I524
I526
tp1528
a(I525
I527
tp1529
a(I526
I528
tp1530
a(I527
I529
tp1531
a(I528
I530
tp1532
a(I531
I630
tp1533
a(I530
I532
tp1534
a(I531
I533
tp1535
a(I351
I534
tp1536
a(I533
I535
tp1537
a(I534
I536
tp1538
a(I535
I537
tp1539
a(I536
I538
tp1540
a(I537
I539
tp1541
a(I538
I540
tp1542
a(I385
I539
tp1543
a(I540
I870
tp1544
a(I541
I717
tp1545
a(I25
I542
tp1546
a(I543
I545
tp1547
a(I361
I546
tp1548
a(I545
I547
tp1549
a(I546
I548
tp1550
a(I547
I549
tp1551
a(I548
I550
tp1552
a(I248
I934
tp1553
a(I550
I552
tp1554
a(I551
I553
tp1555
a(I181
I552
tp1556
a(I553
I555
tp1557
a(I554
I556
tp1558
a(I555
I557
tp1559
a(I556
I558
tp1560
a(I557
I559
tp1561
a(I551
I560
tp1562
a(I559
I561
tp1563
a(I560
I562
tp1564
a(I561
I563
tp1565
a(I562
I564
tp1566
a(I563
I565
tp1567
a(I564
I566
tp1568
a(I565
I567
tp1569
a(I566
I568
tp1570
a(I162
I567
tp1571
a(I570
I798
tp1572
a(I498
I571
tp1573
a(I643
I986
tp1574
a(I571
I573
tp1575
a(I572
I574
tp1576
a(I573
I923
tp1577
a(I574
I576
tp1578
a(I575
I577
tp1579
a(I576
I578
tp1580
a(I577
I579
tp1581
a(I578
I580
tp1582
a(I579
I581
tp1583
a(I580
I582
tp1584
a(I581
I583
tp1585
a(I582
I584
tp1586
a(I583
I585
tp1587
a(I584
I586
tp1588
a(I585
I587
tp1589
a(I522
I586
tp1590
a(I587
I589
tp1591
a(I588
I590
tp1592
a(I589
I591
tp1593
a(I590
I592
tp1594
a(I593
I609
tp1595
a(I592
I594
tp1596
a(I593
I595
tp1597
a(I594
I596
tp1598
a(I595
I597
tp1599
a(I596
I598
tp1600
a(I597
I599
tp1601
a(I595
I598
tp1602
a(I599
I601
tp1603
a(I600
I602
tp1604
a(I601
I603
tp1605
a(I602
I604
tp1606
a(I603
I605
tp1607
a(I604
I606
tp1608
a(I605
I607
tp1609
a(I217
I608
tp1610
a(I607
I609
tp1611
a(I608
I610
tp1612
a(I609
I723
tp1613
a(I610
I612
tp1614
a(I611
I613
tp1615
a(I612
I614
tp1616
a(I613
I615
tp1617
a(I614
I616
tp1618
a(I615
I617
tp1619
a(I331
I618
tp1620
a(I617
I619
tp1621
a(I618
I620
tp1622
a(I619
I621
tp1623
a(I620
I622
tp1624
a(I423
I621
tp1625
a(I622
I624
tp1626
a(I623
I625
tp1627
a(I624
I626
tp1628
a(I625
I627
tp1629
a(I626
I628
tp1630
a(I627
I629
tp1631
a(I628
I630
tp1632
a(I629
I631
tp1633
a(I630
I632
tp1634
a(I586
I631
tp1635
a(I632
I634
tp1636
a(I633
I635
tp1637
a(I634
I636
tp1638
a(I268
I635
tp1639
a(I636
I641
tp1640
a(I637
I639
tp1641
a(I638
I640
tp1642
a(I639
I641
tp1643
a(I640
I642
tp1644
a(I492
I643
tp1645
a(I642
I644
tp1646
a(I643
I645
tp1647
a(I644
I646
tp1648
a(I645
I992
tp1649
a(I646
I648
tp1650
a(I647
I675
tp1651
a(I648
I650
tp1652
a(I649
I651
tp1653
a(I650
I652
tp1654
a(I651
I653
tp1655
a(I652
I654
tp1656
a(I653
I655
tp1657
a(I654
I656
tp1658
a(I655
I657
tp1659
a(I95
I658
tp1660
a(I615
I657
tp1661
a(I658
I660
tp1662
a(I659
I661
tp1663
a(I660
I662
tp1664
a(I661
I663
tp1665
a(I662
I664
tp1666
a(I663
I665
tp1667
a(I664
I666
tp1668
a(I665
I667
tp1669
a(I666
I668
tp1670
a(I667
I669
tp1671
a(I668
I670
tp1672
a(I669
I671
tp1673
a(I412
I672
tp1674
a(I671
I673
tp1675
a(I672
I674
tp1676
a(I673
I675
tp1677
a(I98
I674
tp1678
a(I675
I677
tp1679
a(I676
I678
tp1680
a(I677
I679
tp1681
a(I678
I680
tp1682
a(I679
I681
tp1683
a(I680
I682
tp1684
a(I681
I683
tp1685
a(I682
I684
tp1686
a(I683
I685
tp1687
a(I684
I686
tp1688
a(I685
I687
tp1689
a(I686
I688
tp1690
a(I295
I687
tp1691
a(I688
I690
tp1692
a(I691
I740
tp1693
a(I690
I692
tp1694
a(I691
I693
tp1695
a(I692
I694
tp1696
a(I693
I695
tp1697
a(I694
I696
tp1698
a(I695
I697
tp1699
a(I696
I698
tp1700
a(I697
I699
tp1701
a(I519
I700
tp1702
a(I699
I701
tp1703
a(I700
I702
tp1704
a(I701
I703
tp1705
a(I702
I704
tp1706
a(I703
I705
tp1707
a(I704
I706
tp1708
a(I705
I707
tp1709
a(I706
I708
tp1710
a(I707
I709
tp1711
a(I708
I710
tp1712
a(I709
I711
tp1713
a(I710
I712
tp1714
a(I711
I713
tp1715
a(I564
I712
tp1716
a(I713
I715
tp1717
a(I714
I716
tp1718
a(I715
I717
tp1719
a(I716
I718
tp1720
a(I485
I719
tp1721
a(I506
I720
tp1722
a(I719
I721
tp1723
a(I720
I722
tp1724
a(I721
I723
tp1725
a(I237
I722
tp1726
a(I723
I725
tp1727
a(I724
I726
tp1728
a(I725
I727
tp1729
a(I726
I728
tp1730
a(I32
I727
tp1731
a(I268
I728
tp1732
a(I729
I731
tp1733
a(I730
I732
tp1734
a(I731
I733
tp1735
a(I732
I734
tp1736
a(I733
I735
tp1737
a(I667
I734
tp1738
a(I735
I737
tp1739
a(I736
I738
tp1740
a(I737
I739
tp1741
a(I738
I740
tp1742
a(I739
I741
tp1743
a(I482
I740
tp1744
a(I741
I743
tp1745
a(I742
I744
tp1746
a(I743
I745
tp1747
a(I744
I746
tp1748
a(I745
I747
tp1749
a(I179
I748
tp1750
a(I747
I749
tp1751
a(I748
I750
tp1752
a(I90
I672
tp1753
a(I750
I752
tp1754
a(I751
I753
tp1755
a(I752
I754
tp1756
a(I753
I755
tp1757
a(I754
I756
tp1758
a(I755
I757
tp1759
a(I756
I758
tp1760
a(I757
I759
tp1761
a(I758
I760
tp1762
a(I759
I761
tp1763
a(I760
I762
tp1764
a(I761
I763
tp1765
a(I762
I764
tp1766
a(I763
I765
tp1767
a(I764
I766
tp1768
a(I747
I767
tp1769
a(I766
I768
tp1770
a(I767
I769
tp1771
a(I768
I770
tp1772
a(I769
I771
tp1773
a(I770
I772
tp1774
a(I771
I773
tp1775
a(I772
I774
tp1776
a(I773
I775
tp1777
a(I774
I776
tp1778
a(I775
I777
tp1779
a(I776
I778
tp1780
a(I777
I779
tp1781
a(I778
I780
tp1782
a(I779
I781
tp1783
a(I21
I782
tp1784
a(I781
I783
tp1785
a(I782
I784
tp1786
a(I783
I785
tp1787
a(I286
I786
tp1788
a(I372
I787
tp1789
a(I786
I815
tp1790
a(I787
I789
tp1791
a(I788
I790
tp1792
a(I789
I791
tp1793
a(I790
I792
tp1794
a(I521
I588
tp1795
a(I792
I794
tp1796
a(I793
I795
tp1797
a(I80
I796
tp1798
a(I795
I797
tp1799
a(I796
I798
tp1800
a(I797
I799
tp1801
a(I798
I800
tp1802
a(I799
I801
tp1803
a(I124
I802
tp1804
a(I801
I867
tp1805
a(I802
I804
tp1806
a(I803
I805
tp1807
a(I804
I806
tp1808
a(I114
I807
tp1809
a(I806
I808
tp1810
a(I807
I809
tp1811
a(I808
I810
tp1812
a(I763
I809
tp1813
a(I810
I812
tp1814
a(I811
I813
tp1815
a(I812
I814
tp1816
a(I813
I815
tp1817
a(I725
I814
tp1818
a(I815
I817
tp1819
a(I548
I816
tp1820
a(I817
I819
tp1821
a(I818
I820
tp1822
a(I819
I821
tp1823
a(I820
I822
tp1824
a(I821
I823
tp1825
a(I353
I822
tp1826
a(I823
I825
tp1827
a(I824
I826
tp1828
a(I825
I827
tp1829
a(I826
I828
tp1830
a(I827
I829
tp1831
a(I828
I830
tp1832
a(I707
I829
tp1833
a(I830
I832
tp1834
a(I674
I833
tp1835
a(I832
I834
tp1836
a(I833
I835
tp1837
a(I834
I836
tp1838
a(I835
I837
tp1839
a(I836
I838
tp1840
a(I188
I839
tp1841
a(I838
I840
tp1842
a(I839
I841
tp1843
a(I840
I842
tp1844
a(I841
I843
tp1845
a(I601
I844
tp1846
a(I616
I845
tp1847
a(I844
I846
tp1848
a(I845
I963
tp1849
a(I384
I846
tp1850
a(I847
I849
tp1851
a(I848
I850
tp1852
a(I849
I851
tp1853
a(I809
I852
tp1854
a(I85
I851
tp1855
a(I852
I854
tp1856
a(I853
I855
tp1857
a(I854
I856
tp1858
a(I855
I857
tp1859
a(I856
I858
tp1860
a(I460
I859
tp1861
a(I858
I860
tp1862
a(I859
I861
tp1863
a(I860
I862
tp1864
a(I861
I863
tp1865
a(I862
I978
tp1866
a(I863
I865
tp1867
a(I110
I864
tp1868
a(I865
I867
tp1869
a(I866
I868
tp1870
a(I867
I869
tp1871
a(I868
I870
tp1872
a(I869
I963
tp1873
a(I870
I872
tp1874
a(I871
I873
tp1875
a(I872
I874
tp1876
a(I873
I875
tp1877
a(I874
I876
tp1878
a(I875
I877
tp1879
a(I876
I878
tp1880
a(I877
I879
tp1881
a(I878
I880
tp1882
a(I879
I881
tp1883
a(I880
I882
tp1884
a(I881
I883
tp1885
a(I144
I882
tp1886
a(I847
I885
tp1887
a(I884
I886
tp1888
a(I885
I887
tp1889
a(I886
I888
tp1890
a(I887
I889
tp1891
a(I888
I890
tp1892
a(I889
I891
tp1893
a(I890
I892
tp1894
a(I893
I898
tp1895
a(I892
I894
tp1896
a(I893
I895
tp1897
a(I894
I896
tp1898
a(I895
I897
tp1899
a(I896
I898
tp1900
a(I897
I899
tp1901
a(I898
I900
tp1902
a(I899
I901
tp1903
a(I900
I902
tp1904
a(I901
I903
tp1905
a(I902
I904
tp1906
a(I903
I905
tp1907
a(I767
I906
tp1908
a(I245
I907
tp1909
a(I906
I908
tp1910
a(I907
I909
tp1911
a(I908
I910
tp1912
a(I909
I911
tp1913
a(I910
I912
tp1914
a(I81
I706
tp1915
a(I912
I914
tp1916
a(I913
I915
tp1917
a(I914
I916
tp1918
a(I915
I917
tp1919
a(I916
I918
tp1920
a(I917
I919
tp1921
a(I918
I920
tp1922
a(I919
I921
tp1923
a(I651
I922
tp1924
a(I921
I923
tp1925
a(I922
I924
tp1926
a(I277
I925
tp1927
a(I924
I926
tp1928
a(I925
I927
tp1929
a(I670
I928
tp1930
a(I927
I929
tp1931
a(I928
I930
tp1932
a(I929
I931
tp1933
a(I849
I930
tp1934
a(I72
I639
tp1935
a(I228
I932
tp1936
a(I933
I935
tp1937
a(I934
I936
tp1938
a(I935
I937
tp1939
a(I104
I938
tp1940
a(I937
I939
tp1941
a(I938
I940
tp1942
a(I939
I941
tp1943
a(I940
I942
tp1944
a(I941
I943
tp1945
a(I942
I944
tp1946
a(I136
I943
tp1947
a(I944
I946
tp1948
a(I945
I947
tp1949
a(I946
I948
tp1950
a(I947
I949
tp1951
a(I367
I948
tp1952
a(I949
I951
tp1953
a(I950
I952
tp1954
a(I674
I953
tp1955
a(I253
I952
tp1956
a(I953
I955
tp1957
a(I954
I956
tp1958
a(I955
I957
tp1959
a(I956
I958
tp1960
a(I957
I959
tp1961
a(I958
I960
tp1962
a(I959
I961
tp1963
a(I960
I962
tp1964
a(I961
I963
tp1965
a(I962
I964
tp1966
a(I467
I963
tp1967
a(I785
I964
tp1968
a(I385
I965
tp1969
a(I966
I968
tp1970
a(I967
I969
tp1971
a(I237
I968
tp1972
a(I105
I969
tp1973
a(I970
I972
tp1974
a(I971
I973
tp1975
a(I68
I974
tp1976
a(I973
I975
tp1977
a(I60
I976
tp1978
a(I975
I977
tp1979
a(I976
I978
tp1980
a(I977
I979
tp1981
a(I978
I980
tp1982
a(I979
I981
tp1983
a(I980
I982
tp1984
a(I981
I983
tp1985
a(I982
I984
tp1986
a(I917
I983
tp1987
a(I984
I986
tp1988
a(I985
I987
tp1989
a(I986
I988
tp1990
a(I987
I989
tp1991
a(I988
I990
tp1992
a(I989
I991
tp1993
a(I990
I992
tp1994
a(I991
I993
tp1995
a(I992
I994
tp1996
a(I993
I995
tp1997
a(I994
I996
tp1998
a(I995
I997
tp1999
a(I996
I998
tp2000
a(I997
I999
tp2001
aI00
(dp2002
(dp2003
(dp2004
tp2005
Rp2006
(dp2007
b(lp2008
I1
aI2
aI4
aI8
aI16
aI32
a(lp2009
(lp2010
I19812
aI11020
aI18497
aI7024
aI4567
aI14716
aI5525
aI16523
aI13956
aI11138
aI29325
aI20807
aI17834
aI20912
aI77553
aI19137
aI3461
aI27463
aI2175
aI18172
aI26583
aI22902
aI19646
aI48985
aI11138
aI18257
aI7075
aI14686
aI8900
aI43436
aa(lp2011
I40966
aI32051
aI66544
aI31820
aI33350
aI51984
aI34977
aI36490
aI54642
aI70204
aI29014
aI8893
aI78012
aI12846
aI26651
aI18103
aI33397
aI25910
aI28108
aI26163
aI37131
aI54647
aI18845
aI58374
aI47465
aI25557
aI15900
aI15783
aI18874
aI50731
aa(lp2012
I32503
aI64868
aI90930
aI79340
aI36626
aI55147
aI63138
aI83375
aI59714
aI70815
aI100412
aI57434
aI71371
aI33488
aI42628
aI27209
aI51675
aI66756
aI71362
aI90033
aI75229
aI39183
aI75399
aI40747
aI92627
aI41384
aI68056
aI80494
aI122219
aI117828
aa(lp2013
I189260
aI199834
aI131031
aI154707
aI143158
aI57246
aI218942
aI139469
aI163269
aI133446
aI145594
aI156434
aI152736
aI162393
aI72803
aI74148
aI190148
aI116663
aI163119
aI128019
aI80397
aI172873
aI128097
aI168422
aI86574
aI111833
aI116733
aI112130
aI124850
aI76448
aa(lp2014
I250444
aI262472
aI228401
aI233319
aI234923
aI311944
aI228501
aI248438
aI302222
aI316089
aI266765
aI218807
aI256291
aI237002
aI254690
aI248890
aI248074
aI187511
aI214816
aI257448
aI211285
aI206716
aI266376
aI224879
aI246792
aI217056
aI229765
aI225246
aI247569
aI307195
aa(lp2015
I446333
aI436550
aI428150
aI411773
aI437507
aI406191
aI360521
aI429800
aI375891
aI356048
aI423066
aI419263
aI351516
aI396611
aI381356
aI409317
aI395075
aI340106
aI398752
aI407295
aI383903
aI344912
aI391230
aI355208
aI427848
aI351502
aI431208
aI481538
aI400490
aI385203
aa(lp2016
(lp2017
I19812
aI11020
aI18497
aI7024
aI4567
aI14716
aI5525
aI16523
aI13956
aI11138
aI29325
aI20807
aI17834
aI20912
aI77553
aI19137
aI3461
aI27463
aI2175
aI18172
aI26583
aI22902
aI19646
aI48985
aI11138
aI18257
aI7075
aI14686
aI8900
aI43436
aa(lp2018
I41336
aI32064
aI67062
aI31835
aI33350
aI51997
aI35003
aI36492
aI55106
aI70256
aI29036
aI8893
aI78109
aI12846
aI26651
aI18103
aI33399
aI25910
aI28114
aI26163
aI37149
aI54744
aI18845
aI58374
aI47467
aI25584
aI15908
aI15783
aI18938
aI50871
aa(lp2019
I32534
aI65548
aI91189
aI225496
aI36734
aI352843
aI63201
aI83882
aI60136
aI72352
aI101606
aI58448
aI72754
aI33694
aI47261
aI27242
aI51683
aI69236
aI71436
aI90149
aI75451
aI39264
aI75876
aI292021
aI93919
aI41643
aI68336
aI81496
aI124846
aI119281
aa(lp2020
I194694
aI208849
aI145937
aI158224
aI149513
aI57777
aI246346
aI168703
aI164530
aI141955
aI152940
aI159143
aI154034
aI164699
aI270744
aI74526
aI194724
aI119250
aI169330
aI133379
aI83108
aI179443
aI134272
aI509286
aI90404
aI112683
aI117186
aI113740
aI134575
aI284441
aa(lp2021
I498742
aI279497
aI319435
aI554619
aI281068
aI326567
aI381747
aI553712
aI368291
aI481758
aI289965
aI230780
aI273686
aI487252
aI536063
aI539424
aI267936
aI377461
aI237529
aI566860
aI399229
aI228412
aI580264
aI252057
aI262398
aI237532
aI253993
aI239541
aI262939
aI565378
aa(lp2022
I497936
aI501607
aI493386
aI638850
aI691946
aI715428
aI657828
aI699542
aI570148
aI534052
aI746509
aI553014
aI555478
aI621658
aI581044
aI655162
aI609311
aI416028
aI625267
aI678831
aI648722
aI618732
aI514640
aI601338
aI736337
aI623534
aI482187
aI541685
aI605409
aI539242
aa(lp2023
F2.035051107406616
aF2.3324780464172363
aF4.151748895645142
aF6.4096519947052
aF10.408710956573486
aF20.444590091705322
a(lp2024
I74930
aI145563
aI219377
aI363724
aI504583
aI673614
a(lp2025
I74930
aI145636
aI227493
aI400128
aI551933
aI841183
a(lp2026
F0.9671487808227539
aF1.1140720844268799
aF1.6873810291290283
aF2.9599530696868896
aF5.006591081619263
aF12.2417311668396
atp2027
.